
/home/kali/Downloads/h3c/re/linux/client_tgz/iNodeClient/libs/libZeroTrust.so:     file format elf64-x86-64

SYMBOL TABLE:
00000000000001c8 l    d  .note.gnu.build-id	0000000000000000              .note.gnu.build-id
00000000000001f0 l    d  .gnu.hash	0000000000000000              .gnu.hash
0000000000001600 l    d  .dynsym	0000000000000000              .dynsym
00000000000064a8 l    d  .dynstr	0000000000000000              .dynstr
000000000000f96e l    d  .gnu.version	0000000000000000              .gnu.version
0000000000010000 l    d  .gnu.version_r	0000000000000000              .gnu.version_r
0000000000010170 l    d  .rela.dyn	0000000000000000              .rela.dyn
00000000000111a8 l    d  .rela.plt	0000000000000000              .rela.plt
00000000000141f0 l    d  .init	0000000000000000              .init
0000000000014210 l    d  .plt	0000000000000000              .plt
0000000000016250 l    d  .plt.got	0000000000000000              .plt.got
0000000000016270 l    d  .text	0000000000000000              .text
0000000000050ed4 l    d  .fini	0000000000000000              .fini
0000000000050ee0 l    d  .rodata	0000000000000000              .rodata
0000000000056684 l    d  .eh_frame_hdr	0000000000000000              .eh_frame_hdr
0000000000057588 l    d  .eh_frame	0000000000000000              .eh_frame
000000000005d8b4 l    d  .gcc_except_table	0000000000000000              .gcc_except_table
0000000000260790 l    d  .init_array	0000000000000000              .init_array
00000000002607c0 l    d  .fini_array	0000000000000000              .fini_array
00000000002607c8 l    d  .jcr	0000000000000000              .jcr
00000000002607d0 l    d  .data.rel.ro	0000000000000000              .data.rel.ro
0000000000260bc8 l    d  .dynamic	0000000000000000              .dynamic
0000000000260e38 l    d  .got	0000000000000000              .got
0000000000261000 l    d  .got.plt	0000000000000000              .got.plt
0000000000262040 l    d  .data	0000000000000000              .data
00000000002620e0 l    d  .bss	0000000000000000              .bss
0000000000000000 l    d  .comment	0000000000000000              .comment
0000000000000000 l    df *ABS*	0000000000000000              crtstuff.c
00000000002607c8 l     O .jcr	0000000000000000              __JCR_LIST__
00000000000163a0 l     F .text	0000000000000000              deregister_tm_clones
00000000000163e0 l     F .text	0000000000000000              register_tm_clones
0000000000016430 l     F .text	0000000000000000              __do_global_dtors_aux
00000000002620e0 l     O .bss	0000000000000001              completed.7594
00000000002607c0 l     O .fini_array	0000000000000000              __do_global_dtors_aux_fini_array_entry
0000000000016470 l     F .text	0000000000000000              frame_dummy
0000000000260790 l     O .init_array	0000000000000000              __frame_dummy_init_array_entry
0000000000000000 l    df *ABS*	0000000000000000              CConveyor.cpp
00000000000164f0 l     F .text	00000000000000c2              _ZNSt7__cxx1112basic_stringIcSt11char_traitsIcESaIcEE12_M_constructIPKcEEvT_S8_St20forward_iterator_tag.isra.24
0000000000000000 l    df *ABS*	0000000000000000              ConfigFile.cpp
0000000000017720 l     F .text	00000000000000c2              _ZNSt7__cxx1112basic_stringIcSt11char_traitsIcESaIcEE12_M_constructIPcEEvT_S7_St20forward_iterator_tag.isra.42
0000000000017720 l     F .text	00000000000000c2              _ZNSt7__cxx1112basic_stringIcSt11char_traitsIcESaIcEE12_M_constructIPKcEEvT_S8_St20forward_iterator_tag.isra.34
0000000000051499 l     O .rodata	0000000000000001              _ZStL19piecewise_construct
0000000000016270 l     F .text	000000000000002e              _GLOBAL__sub_I_ConfigFile.cpp
00000000002620f0 l     O .bss	0000000000000001              _ZStL8__ioinit
0000000000000000 l    df *ABS*	0000000000000000              SpaPktMaker.cpp
0000000000018eb0 l     F .text	00000000000000c2              _ZNSt7__cxx1112basic_stringIcSt11char_traitsIcESaIcEE12_M_constructIPcEEvT_S7_St20forward_iterator_tag.isra.72
0000000000018eb0 l     F .text	00000000000000c2              _ZNSt7__cxx1112basic_stringIcSt11char_traitsIcESaIcEE12_M_constructIPKcEEvT_S8_St20forward_iterator_tag.isra.63
0000000000019b90 l     F .text	000000000000012c              _Z26AssembleCheckUserStatusReqP17SpaRegisterParamsRNSt7__cxx1112basic_stringIcSt11char_traitsIcESaIcEEE.localalias.124
00000000000522f0 l     O .rodata	0000000000000011              _ZZ16ParseWeComQRRespP17SpaRegisterParamsRKNSt7__cxx1112basic_stringIcSt11char_traitsIcESaIcEEEE12__FUNCTION__
0000000000052316 l     O .rodata	0000000000000001              _ZStL19piecewise_construct
0000000000052308 l     O .rodata	000000000000000e              _ZZ13onKnockUDPMsgP17SpaRegisterParamsbE12__FUNCTION__
00000000000162a0 l     F .text	000000000000005e              _GLOBAL__sub_I_SpaPktMaker.cpp
0000000000262120 l     O .bss	0000000000000001              _ZStL8__ioinit
0000000000000000 l    df *ABS*	0000000000000000              SpaTask.cpp
0000000000025490 l     F .text	00000000000000c2              _ZNSt7__cxx1112basic_stringIcSt11char_traitsIcESaIcEE12_M_constructIPcEEvT_S7_St20forward_iterator_tag.isra.56
0000000000025490 l     F .text	00000000000000c2              _ZNSt7__cxx1112basic_stringIcSt11char_traitsIcESaIcEE12_M_constructIPKcEEvT_S8_St20forward_iterator_tag.isra.48
0000000000025560 l     F .text	000000000000003c              _ZNSt7__cxx1112basic_stringIcSt11char_traitsIcESaIcEEC2EPKcRKS3_.isra.50
00000000000544b0 l     O .rodata	0000000000000013              _ZZN8CSpaTask18onQRCodeAuthCancelEiE12__FUNCTION__
00000000000544c8 l     O .rodata	000000000000000e              _ZZN8CSpaTask13sslVpnConnectER11_SslvpnUserRKNSt7__cxx1112basic_stringIcSt11char_traitsIcESaIcEEEE12__FUNCTION__
00000000000544e0 l     O .rodata	0000000000000017              _ZZN8CSpaTask22onStartSslvpnHandShakeEP17SpaRegisterParamsE12__FUNCTION__
0000000000016300 l     F .text	000000000000002e              _GLOBAL__sub_I_SpaTask.cpp
0000000000262140 l     O .bss	0000000000000001              _ZStL8__ioinit
0000000000000000 l    df *ABS*	0000000000000000              SpaUtils.cpp
0000000000035900 l     F .text	00000000000000c2              _ZNSt7__cxx1112basic_stringIcSt11char_traitsIcESaIcEE12_M_constructIPcEEvT_S7_St20forward_iterator_tag.isra.44
0000000000035900 l     F .text	00000000000000c2              _ZNSt7__cxx1112basic_stringIcSt11char_traitsIcESaIcEE12_M_constructIPKcEEvT_S8_St20forward_iterator_tag.isra.35
0000000000054918 l     O .rodata	000000000000000e              _ZZ13pingIPAndPortNSt7__cxx1112basic_stringIcSt11char_traitsIcESaIcEEEiiE12__FUNCTION__
0000000000054900 l     O .rodata	0000000000000014              _ZZ19getHostIpFromDomainNSt7__cxx1112basic_stringIcSt11char_traitsIcESaIcEEEE12__FUNCTION__
00000000000548f0 l     O .rodata	000000000000000a              _ZZ9getHostIDRiE12__FUNCTION__
0000000000054926 l     O .rodata	0000000000000001              _ZStL19piecewise_construct
0000000000016330 l     F .text	000000000000002e              _GLOBAL__sub_I_SpaUtils.cpp
0000000000262141 l     O .bss	0000000000000001              _ZStL8__ioinit
0000000000000000 l    df *ABS*	0000000000000000              jsoncpp.cpp
00000000000395b0 l     F .text	00000000000000c2              _ZNSt7__cxx1112basic_stringIcSt11char_traitsIcESaIcEE12_M_constructIPcEEvT_S7_St20forward_iterator_tag.isra.168
00000000000395b0 l     F .text	00000000000000c2              _ZNSt7__cxx1112basic_stringIcSt11char_traitsIcESaIcEE12_M_constructIPKcEEvT_S8_St20forward_iterator_tag.isra.126
0000000000039680 l     F .text	000000000000003c              _ZNSt7__cxx1112basic_stringIcSt11char_traitsIcESaIcEEC2EPKcRKS3_.isra.128
00000000000396c0 l     F .text	0000000000000068              _ZNSt11_Deque_baseIPN4Json5ValueESaIS2_EE15_M_create_nodesEPPS2_S6_.isra.226
00000000000396c0 l     F .text	0000000000000068              _ZNSt11_Deque_baseIN4Json6Reader9ErrorInfoESaIS2_EE15_M_create_nodesEPPS2_S6_.isra.146
00000000000396c0 l     F .text	0000000000000068              _ZNSt11_Deque_baseIN4Json9OurReader9ErrorInfoESaIS2_EE15_M_create_nodesEPPS2_S6_.isra.157
0000000000039730 l     F .text	0000000000000164              _ZN4JsonL12normalizeEOLEPKcS1_
0000000000039fa0 l     F .text	0000000000000023              _ZN4Json9OurReader12currentValueEv.localalias.246
000000000003a560 l     F .text	000000000000011e              _ZN4JsonL29duplicateAndPrefixStringValueEPKcj
0000000000056220 l     O .rodata	0000000000000036              _ZZNK4Json5ValueltERKS0_E19__PRETTY_FUNCTION__
00000000000561e0 l     O .rodata	0000000000000037              _ZZNK4Json5ValueeqERKS0_E19__PRETTY_FUNCTION__
0000000000056160 l     O .rodata	000000000000002b              _ZZNK4Json5Value4sizeEvE19__PRETTY_FUNCTION__
00000000000562c0 l     O .rodata	0000000000000024              _ZZN4Json5ValueC4ENS_9ValueTypeEE19__PRETTY_FUNCTION__
0000000000056380 l     O .rodata	0000000000000066              _ZZN4Json6Reader10addCommentEPKcS2_NS_16CommentPlacementEE19__PRETTY_FUNCTION__
0000000000056300 l     O .rodata	000000000000006f              _ZZN4Json9OurReader10addCommentEPKcS2_NS_16CommentPlacementEE19__PRETTY_FUNCTION__
00000000000560e0 l     O .rodata	000000000000003b              _ZZN4Json13valueToStringB5cxx11ExE19__PRETTY_FUNCTION__
00000000000560a0 l     O .rodata	000000000000003c              _ZZN4Json13valueToStringB5cxx11EyE19__PRETTY_FUNCTION__
0000000000056040 l     O .rodata	0000000000000045              _ZZN4Json13valueToStringB5cxx11EdbjE19__PRETTY_FUNCTION__
0000000000055fc0 l     O .rodata	0000000000000024              _ZZN4Json12StyledWriter8unindentEvE19__PRETTY_FUNCTION__
0000000000055f20 l     O .rodata	000000000000002a              _ZZN4Json18StyledStreamWriter8unindentEvE19__PRETTY_FUNCTION__
000000000003dc30 l     F .text	000000000000003f              _ZN4Json18StyledStreamWriter18hasCommentForValueERKNS_5ValueE.localalias.247
0000000000055e80 l     O .rodata	000000000000002f              _ZZN4Json23BuiltStyledStreamWriter8unindentEvE19__PRETTY_FUNCTION__
000000000003f260 l     F .text	0000000000000b24              _ZN4JsonL20valueToQuotedStringNEPKcj
00000000000561a0 l     O .rodata	0000000000000039              _ZZNK4Json5Value15isConvertibleToENS_9ValueTypeEE19__PRETTY_FUNCTION__
0000000000056260 l     O .rodata	0000000000000016              _ZZN4Json5ValueD4EvE19__PRETTY_FUNCTION__
0000000000055ec0 l     O .rodata	0000000000000048              _ZZN4Json23BuiltStyledStreamWriter15writeArrayValueERKNS_5ValueEE19__PRETTY_FUNCTION__
0000000000056000 l     O .rodata	000000000000003d              _ZZN4Json12StyledWriter15writeArrayValueERKNS_5ValueEE19__PRETTY_FUNCTION__
0000000000055f60 l     O .rodata	0000000000000043              _ZZN4Json18StyledStreamWriter15writeArrayValueERKNS_5ValueEE19__PRETTY_FUNCTION__
00000000000472e0 l     F .text	00000000000000fc              _ZNSt5dequeIN4Json6Reader9ErrorInfoESaIS2_EE17_M_default_appendEm.part.227
0000000000048480 l     F .text	00000000000000fc              _ZNSt5dequeIN4Json9OurReader9ErrorInfoESaIS2_EE17_M_default_appendEm.part.229
0000000000056280 l     O .rodata	0000000000000027              _ZZN4Json5ValueC4ERKS0_E19__PRETTY_FUNCTION__
0000000000056120 l     O .rodata	0000000000000032              _ZZN4Json5Value6resizeEjE19__PRETTY_FUNCTION__
0000000000056448 l     O .rodata	0000000000000001              _ZStL19piecewise_construct
0000000000262178 l     O .bss	0000000000000004              _ZL12stackDepth_g
0000000000016360 l     F .text	000000000000003b              _GLOBAL__sub_I_jsoncpp.cpp
0000000000056430 l     O .rodata	0000000000000018              _ZN4JsonL5kNullE
0000000000000000 l    df *ABS*	0000000000000000              crtstuff.c
000000000005d8b0 l     O .eh_frame	0000000000000000              __FRAME_END__
00000000002607c8 l     O .jcr	0000000000000000              __JCR_END__
0000000000000000 l    df *ABS*	0000000000000000              
0000000000056684 l       .eh_frame_hdr	0000000000000000              __GNU_EH_FRAME_HDR
0000000000262040 l     O .data	0000000000000000              __dso_handle
0000000000262048 l     O .data	0000000000000008              DW.ref.__gxx_personality_v0
0000000000260bc8 l     O .dynamic	0000000000000000              _DYNAMIC
00000000002620d8 l     O .data	0000000000000000              __TMC_END__
00000000002620d0 l     O .data	0000000000000008              DW.ref._ZTIN10ConfigFile9ExceptionE
0000000000261000 l     O .got.plt	0000000000000000              _GLOBAL_OFFSET_TABLE_
0000000000000000       F *UND*	0000000000000000              ftell@@GLIBC_2.2.5
000000000004ec70  w    F .text	0000000000000048              _ZNSt8_Rb_treeINSt7__cxx1112basic_stringIcSt11char_traitsIcESaIcEEES5_St9_IdentityIS5_ESt4lessIS5_ESaIS5_EE8_M_eraseEPSt13_Rb_tree_nodeIS5_E
0000000000000000       F *UND*	0000000000000000              _Znam@@GLIBCXX_3.4
0000000000000000       F *UND*	0000000000000000              utl_LoadSSLVPNCusInfo
000000000003b590 g     F .text	0000000000000037              _ZN4Json5ValueC2EPKc
0000000000056470  w    O .rodata	0000000000000016              _ZTSN4Json12RuntimeErrorE
0000000000000000       F *UND*	0000000000000000              _ZNSo3putEc@@GLIBCXX_3.4
000000000004a100 g     F .text	0000000000000135              _ZN4Json5Value12removeMemberEPKc
000000000004e430  w    F .text	0000000000000013              _ZN4Json10LogicErrorD1Ev
000000000003a360 g     F .text	0000000000000015              _ZNK4Json17ValueIteratorBase7isEqualERKS0_
0000000000000000       F *UND*	0000000000000000              __errno_location@@GLIBC_2.2.5
0000000000000000       F *UND*	0000000000000000              curl_easy_perform
0000000000000000       F *UND*	0000000000000000              _Z22GetMixedProductVersionPhjbj
000000000003e210 g     F .text	00000000000001a4              _ZN4Json23BuiltStyledStreamWriterC1ERKNSt7__cxx1112basic_stringIcSt11char_traitsIcESaIcEEENS_12CommentStyle4EnumES8_S8_S8_bj
000000000004f3c0  w    F .text	0000000000000211              _ZNSt6vectorINSt7__cxx1112basic_stringIcSt11char_traitsIcESaIcEEESaIS5_EE19_M_emplace_back_auxIIRKS5_EEEvDpOT_
0000000000046540 g     F .text	000000000000015b              _ZN4Json4PathC1ERKNSt7__cxx1112basic_stringIcSt11char_traitsIcESaIcEEERKNS_12PathArgumentESB_SB_SB_SB_
000000000003a960 g     F .text	0000000000000020              _ZN4Json5Value8CZStringD2Ev
0000000000000000       F *UND*	0000000000000000              sendto@@GLIBC_2.2.5
000000000003aa20 g     F .text	000000000000004a              _ZNK4Json5Value8CZStringeqERKS1_
000000000004c340 g     F .text	000000000000067a              _ZN4Json9OurReader10readObjectERNS0_5TokenE
000000000004fbe0  w    F .text	0000000000000129              _ZN4Json13OurCharReaderD1Ev
0000000000048580 g     F .text	000000000000042c              _ZN4Json9OurReader16recoverFromErrorENS0_9TokenTypeE
000000000003cba0 g     F .text	000000000000001e              _ZN4Json12PathArgumentC1Ej
00000000000177f0 g     F .text	000000000000037a              _ZlsRSoRK10ConfigFile
000000000003af80 g     F .text	000000000000000e              _ZNK4Json5ValuegtERKS0_
0000000000036270 g     F .text	0000000000000067              _Z12getTickCountv
0000000000000000       F *UND*	0000000000000000              curl_easy_getinfo
000000000003b480 g     F .text	0000000000000026              _ZN4Json5ValueC2ERKNS_12StaticStringE
000000000003e160 g     F .text	0000000000000017              _ZN4Json12StreamWriter7FactoryD0Ev
0000000000042640 g     F .text	0000000000000018              _ZN4Json17CharReaderBuilderD2Ev
000000000003d260 g     F .text	0000000000000061              _ZN4Json12StyledWriterC1Ev
000000000003b3f0 g     F .text	0000000000000022              _ZN4Json5ValueC2Ex
00000000002608d8  w    O .data.rel.ro	0000000000000018              _ZTIN4Json12RuntimeErrorE
0000000000000000       F *UND*	0000000000000000              rewind@@GLIBC_2.2.5
0000000000039940 g     F .text	0000000000000040              _ZN4Json6Reader10skipSpacesEv
0000000000000000       F *UND*	0000000000000000              _ZN11CCfgFileMgr8getValueEPKcRNSt7__cxx1112basic_stringIcSt11char_traitsIcESaIcEEE
0000000000035c80 g     F .text	00000000000002da              _Z13Domain2ipAddrNSt7__cxx1112basic_stringIcSt11char_traitsIcESaIcEEE
000000000004bd10 g     F .text	0000000000000322              _ZN4Json6Reader5parseEPKcS2_RNS_5ValueEb
000000000003d6a0 g     F .text	000000000000021e              _ZN4Json12StyledWriter32writeCommentAfterValueOnSameLineERKNS_5ValueE
0000000000000000       F *UND*	0000000000000000              _ZSt29_Rb_tree_insert_and_rebalancebPSt18_Rb_tree_node_baseS0_RS_@@GLIBCXX_3.4
000000000003cf70 g     F .text	00000000000001da              _ZN4Json13valueToStringB5cxx11Edbj
0000000000016790 g     F .text	0000000000000da8              _ZN9CConveyor19AllReqToServerEntryEPKcmtRNSt7__cxx1112basic_stringIcSt11char_traitsIcESaIcEEES8_
0000000000040b70 g     F .text	0000000000000316              _ZNK4Json5Value7asInt64Ev
000000000003a430 g     F .text	0000000000000050              _ZN4Json9ExceptionC2ERKNSt7__cxx1112basic_stringIcSt11char_traitsIcESaIcEEE
0000000000038e50 g     F .text	00000000000006ff              _Z18makePrivateContentRNSt7__cxx1112basic_stringIcSt11char_traitsIcESaIcEEES4_
000000000004d0f0 g     F .text	00000000000004c1              _ZN4Json15parseFromStreamERKNS_10CharReader7FactoryERSiPNS_5ValueEPNSt7__cxx1112basic_stringIcSt11char_traitsIcESaIcEEE
0000000000045a40 g     F .text	0000000000000366              _ZN4Json9OurReaderC1ERKNS_11OurFeaturesE
0000000000000000       O *UND*	0000000000000000              _ZTVSt9basic_iosIcSt11char_traitsIcEE@@GLIBCXX_3.4
0000000000039b10 g     F .text	000000000000003f              _ZN4Json6Reader17readCStyleCommentEv
000000000003e180 g     F .text	0000000000000089              _ZN4Json18StyledStreamWriterC1ENSt7__cxx1112basic_stringIcSt11char_traitsIcESaIcEEE
0000000000035860  w    F .text	000000000000009d              _ZN17SSLVPNOptionsInfoD1Ev
0000000000039dc0 g     F .text	0000000000000040              _ZN4Json9OurReader10skipSpacesEv
000000000003a2d0 g     F .text	0000000000000011              _ZN4Json17ValueIteratorBase9incrementEv
0000000000260b00  w    O .data.rel.ro	0000000000000028              _ZTVN4Json12StyledWriterE
0000000000000000       F *UND*	0000000000000000              _ZNSolsEPSt15basic_streambufIcSt11char_traitsIcEE@@GLIBCXX_3.4
000000000003cbc0 g     F .text	000000000000004c              _ZN4Json12PathArgumentC2EPKc
000000000003a820 g     F .text	000000000000000b              _ZN4Json5Value8CZStringC1Ej
000000000001d8e0 g     F .text	000000000000014d              _Z19SaveSpaAidWithSdpIPNSt7__cxx1112basic_stringIcSt11char_traitsIcESaIcEEES4_
0000000000018880  w    F .text	0000000000000096              _ZStplIcSt11char_traitsIcESaIcEENSt7__cxx1112basic_stringIT_T0_T1_EEOS8_PKS5_
0000000000042900 g     F .text	00000000000000b0              _ZNK4Json5ValueixEi
00000000002620e8 g     O .bss	0000000000000008              _ZN9CConveyor13cy_poInstanceE
000000000001ff20 g     F .text	0000000000000cd4              _Z15GetInfoFromFileNSt7__cxx1112basic_stringIcSt11char_traitsIcESaIcEEE
0000000000000000       F *UND*	0000000000000000              _ZNSt13basic_fstreamIcSt11char_traitsIcEED1Ev@@GLIBCXX_3.4
000000000003e100 g     F .text	0000000000000017              _ZN4Json12StreamWriterC2Ev
0000000000260b78  w    O .data.rel.ro	0000000000000028              _ZTVN4Json12StreamWriter7FactoryE
0000000000000000       F *UND*	0000000000000000              _ZNSt13basic_filebufIcSt11char_traitsIcEE5closeEv@@GLIBCXX_3.4
0000000000050790  w    F .text	00000000000000fe              _ZNSt5dequeIN4Json9OurReader9ErrorInfoESaIS2_EE23_M_new_elements_at_backEm
0000000000056418 g     O .rodata	0000000000000004              _ZN4Json5Value7maxUIntE
0000000000039e60 g     F .text	0000000000000138              _ZN4Json9OurReader10readNumberEb
0000000000000000       F *UND*	0000000000000000              _ZNSt7__cxx1119basic_ostringstreamIcSt11char_traitsIcESaIcEED1Ev@@GLIBCXX_3.4.21
0000000000262128 g     O .bss	0000000000000001              g_bCheckUserStatusTimerOn
00000000002620d8 g       .data	0000000000000000              _edata
0000000000000000       F *UND*	0000000000000000              socket@@GLIBC_2.2.5
000000000003d960 g     F .text	0000000000000011              _ZN4Json18StyledStreamWriter6indentEv
0000000000262130 g     O .bss	0000000000000008              _ZN8CSpaTask15m_pSpaRegParamsE
0000000000034eb0  w    F .text	0000000000000943              _ZN17SpaRegisterParamsC2Ev
000000000003b5d0 g     F .text	0000000000000033              _ZN4Json5ValueC2EPKcS2_
00000000002607e8  w    O .data.rel.ro	0000000000000020              _ZTV9CConveyor
0000000000020d00 g     F .text	000000000000020f              _Z17AssembleSmsPreReqP17SpaRegisterParamsRNSt7__cxx1112basic_stringIcSt11char_traitsIcESaIcEEE
0000000000000000       F *UND*	0000000000000000              _ZN10CSslVpnMgr13setConnStatusEi
000000000003a480 g     F .text	0000000000000019              _ZN4Json12RuntimeErrorC1ERKNSt7__cxx1112basic_stringIcSt11char_traitsIcESaIcEEE
0000000000000000       F *UND*	0000000000000000              rand@@GLIBC_2.2.5
0000000000000000       F *UND*	0000000000000000              _ZNKSt7__cxx1112basic_stringIcSt11char_traitsIcESaIcEE7compareEPKc@@GLIBCXX_3.4.21
0000000000000000       F *UND*	0000000000000000              curl_easy_init
000000000003cc10 g     F .text	000000000000004c              _ZN4Json12PathArgumentC2ERKNSt7__cxx1112basic_stringIcSt11char_traitsIcESaIcEEE
0000000000023b50 g     F .text	00000000000000e8              _Z11GetUniqueIDB5cxx11v
000000000003b420 g     F .text	0000000000000022              _ZN4Json5ValueC1Ey
00000000000564d0  w    O .rodata	0000000000000014              _ZTSN4Json10CharReaderE
0000000000000000       F *UND*	0000000000000000              _ZNSt8ios_baseC2Ev@@GLIBCXX_3.4
0000000000047cb0 g     F .text	00000000000006e1              _ZN4Json9OurReader12decodeStringERNS0_5TokenERNSt7__cxx1112basic_stringIcSt11char_traitsIcESaIcEEE
000000000004d8e0 g     F .text	00000000000005f1              _ZNK4Json17CharReaderBuilder8validateEPNS_5ValueE
00000000000301b0 g     F .text	0000000000000b69              _ZN8CSpaTask24onQuerySpaSecondAuthCodeERK10_SpaVpnCfgR14_SpaVpnCfgResp
000000000003d4a0 g     F .text	00000000000001f8              _ZN4Json12StyledWriter23writeCommentBeforeValueERKNS_5ValueE
0000000000039c00 g     F .text	000000000000007d              _ZNK4Json6Reader24getLocationLineAndColumnEPKcRiS3_
0000000000000000       F *UND*	0000000000000000              _ZNSt7__cxx1112basic_stringIcSt11char_traitsIcESaIcEE6resizeEmc@@GLIBCXX_3.4.21
000000000004a280 g     F .text	00000000000000d7              _ZNK4Json4Path7resolveERKNS_5ValueES3_
000000000004af60 g     F .text	00000000000001c2              _ZN4Json17CharReaderBuilder10strictModeEPNS_5ValueE
000000000001c010 g     F .text	0000000000000a98              _Z22ParseSpaGetAppListRespP17SpaRegisterParamsRKNSt7__cxx1112basic_stringIcSt11char_traitsIcESaIcEEE
000000000003be10 g     F .text	0000000000000016              _ZNK4Json5Value8isDoubleEv
0000000000000000       F *UND*	0000000000000000              _ZNSt7__cxx1112basic_stringIcSt11char_traitsIcESaIcEE9_M_appendEPKcm@@GLIBCXX_3.4.21
0000000000000000       O *UND*	0000000000000000              _ZTVNSt7__cxx1119basic_istringstreamIcSt11char_traitsIcESaIcEEE@@GLIBCXX_3.4.21
0000000000056580  w    O .rodata	0000000000000014              _ZTSN4Json10FastWriterE
0000000000016690 g     F .text	0000000000000023              _ZN9CConveyorC1Ev
0000000000000000       F *UND*	0000000000000000              _ZN10NetMonitor19unregister_callbackE9EAuthType
0000000000044b10 g     F .text	000000000000018b              _ZN4Json12StyledWriter14isMultineArrayERKNS_5ValueE
00000000002609b8  w    O .data.rel.ro	0000000000000018              _ZTIN4Json13OurCharReaderE
0000000000045550 g     F .text	0000000000000088              _ZN4Json18StyledStreamWriter5writeERSoRKNS_5ValueE
000000000003abb0 g     F .text	000000000000007a              _ZNK4Json17ValueIteratorBase4nameB5cxx11Ev
000000000003cc60 g     F .text	0000000000000002              _ZN4Json4Path11invalidPathERKNSt7__cxx1112basic_stringIcSt11char_traitsIcESaIcEEEi
00000000000398a0 g     F .text	0000000000000008              _ZN4Json8FeaturesC2Ev
0000000000000000       F *UND*	0000000000000000              _ZNSt8ios_baseD2Ev@@GLIBCXX_3.4
00000000000166c0 g     F .text	0000000000000060              _ZN9CConveyorC2EPKcm
0000000000000000       F *UND*	0000000000000000              strerror@@GLIBC_2.2.5
000000000004e510  w    F .text	000000000000002d              _ZN4Json10FastWriterD2Ev
000000000004c040 g     F .text	000000000000003d              _ZN4Json6Reader5parseERKNSt7__cxx1112basic_stringIcSt11char_traitsIcESaIcEEERNS_5ValueEb
0000000000049f70 g     F .text	000000000000002b              _ZN4Json5Value12removeMemberEPKcPS0_
0000000000039fa0 g     F .text	0000000000000023              _ZN4Json9OurReader12currentValueEv
00000000000255a0 g     F .text	00000000000001a0              _ZN8CSpaTask8instanceEv
0000000000049fa0 g     F .text	000000000000001b              _ZN4Json5Value12removeMemberERKNSt7__cxx1112basic_stringIcSt11char_traitsIcESaIcEEEPS0_
0000000000000000       O *UND*	0000000000000000              _ZTTNSt7__cxx1118basic_stringstreamIcSt11char_traitsIcESaIcEEE@@GLIBCXX_3.4.21
000000000003e150 g     F .text	0000000000000002              _ZN4Json12StreamWriter7FactoryD2Ev
00000000000251f0 g     F .text	000000000000029a              _ZN8CSpaTask19getSDPNetWorkStatusEPvi
0000000000000000       F *UND*	0000000000000000              _ZSt17__throw_bad_allocv@@GLIBCXX_3.4
0000000000000000       F *UND*	0000000000000000              curl_easy_strerror
0000000000041a90 g     F .text	000000000000003b              _ZNK4Json6Reader24getFormatedErrorMessagesB5cxx11Ev
0000000000000000       F *UND*	0000000000000000              utl_base64_encode
0000000000000000       F *UND*	0000000000000000              strchr@@GLIBC_2.2.5
000000000003a980 g     F .text	0000000000000019              _ZN4Json5Value8CZString4swapERS1_
0000000000039d50 g     F .text	000000000000001c              _ZN4Json11OurFeaturesC2Ev
00000000000364d0 g     F .text	000000000000037d              _Z8toStringB5cxx11i
000000000003d390 g     F .text	0000000000000028              _ZN4Json12StyledWriter15writeWithIndentERKNSt7__cxx1112basic_stringIcSt11char_traitsIcESaIcEEE
0000000000045f50 g     F .text	00000000000002d3              _ZN4Json6ReaderC1ERKNS_8FeaturesE
0000000000039560 g     F .text	000000000000002d              _ZN4Json9ExceptionD2Ev
000000000003b3c0 g     F .text	0000000000000023              _ZN4Json5ValueC1Ej
0000000000042560 g     F .text	00000000000000dc              _ZN4Json5ValueD2Ev
0000000000017b70 g     F .text	0000000000000169              _ZN10ConfigFile9clearLineERNSt7__cxx1112basic_stringIcSt11char_traitsIcESaIcEEERm
0000000000045a40 g     F .text	0000000000000366              _ZN4Json9OurReaderC2ERKNS_11OurFeaturesE
000000000003a2f0 g     F .text	0000000000000011              _ZN4Json17ValueIteratorBase9decrementEv
000000000003d460 g     F .text	000000000000003a              _ZN4Json12StyledWriter8unindentEv
000000000004c140 g     F .text	00000000000001ff              _ZN4Json6Reader9readArrayERNS0_5TokenE
000000000003a310 g     F .text	0000000000000045              _ZNK4Json17ValueIteratorBase15computeDistanceERKS0_
000000000003b420 g     F .text	0000000000000022              _ZN4Json5ValueC2Ey
000000000004af30 g     F .text	0000000000000029              _ZN4Json5ValueixEPKc
00000000002620a0 g     O .data	0000000000000028              doubleDigits
000000000004aac0 g     F .text	0000000000000223              _ZN4Json5Value16resolveReferenceEPKc
0000000000039550 g     F .text	0000000000000005              _ZNK4Json9Exception4whatEv
0000000000262100 g     O .bss	0000000000000020              _Z13m_strUniqueIDB5cxx11
00000000000164d0 g     F .text	0000000000000017              _ZN9CConveyorD0Ev
000000000003aa70 g     F .text	0000000000000004              _ZNK4Json5Value8CZString5indexEv
000000000003a830 g     F .text	0000000000000021              _ZN4Json5Value8CZStringC2EPKcjNS1_17DuplicationPolicyE
0000000000030d20 g     F .text	000000000000094c              _ZN8CSpaTask12buildEADInfoERNSt7__cxx1112basic_stringIcSt11char_traitsIcESaIcEEES5_i
0000000000039ae0 g     F .text	0000000000000023              _ZN4Json6Reader11getNextCharEv
0000000000000000       F *UND*	0000000000000000              _Z13SendStatusMsgii
00000000000187c0  w    F .text	000000000000003a              _ZN10ConfigFile9ExceptionD0Ev
0000000000000000       F *UND*	0000000000000000              __cxa_begin_catch@@CXXABI_1.3
000000000004fdf0  w    F .text	000000000000003d              _ZNSt8_Rb_treeIN4Json5Value8CZStringESt4pairIKS2_S1_ESt10_Select1stIS5_ESt4lessIS2_ESaIS5_EE12_M_erase_auxESt23_Rb_tree_const_iteratorIS5_E
0000000000016750 g     F .text	0000000000000033              _ZN9CConveyor9SetServerEPKcm
0000000000000000       F *UND*	0000000000000000              _Z19GetAddrInfoByIpAddrPKcR13_IP_ADDR_INFO
000000000003a9a0 g     F .text	000000000000000e              _ZN4Json5Value8CZStringaSES1_
0000000000000000       F *UND*	0000000000000000              curl_slist_append
0000000000000000       F *UND*	0000000000000000              _Z17utl_GetInstallDirv
0000000000000000       F *UND*	0000000000000000              _ZN16CBasedTXmlParser13UTF_8ToGB2312B5cxx11EPKci
0000000000028840 g     F .text	0000000000000ab4              _ZN8CSpaTask15onChangeUserPwdERK10_SpaVpnCfgR14_SpaVpnCfgResp
0000000000019740 g     F .text	00000000000001a2              _Z24AssembleChangeUserPwdReqP17SpaRegisterParamsRNSt7__cxx1112basic_stringIcSt11char_traitsIcESaIcEEE
000000000003b4e0 g     F .text	00000000000000af              _ZN4Json5ValueC1ENS_9ValueTypeE
0000000000000000  w    F *UND*	0000000000000000              __cxa_finalize@@GLIBC_2.2.5
0000000000000000       F *UND*	0000000000000000              strlen@@GLIBC_2.2.5
0000000000000000       F *UND*	0000000000000000              inet_ntoa@@GLIBC_2.2.5
0000000000000000       F *UND*	0000000000000000              memcmp@@GLIBC_2.2.5
0000000000000000       F *UND*	0000000000000000              EVP_sha1@@OPENSSL_1_1_0
000000000003b780 g     F .text	00000000000000a9              _ZNK4Json5Value5isIntEv
0000000000054500  w    O .rodata	000000000000001b              _ZTS24ACE_OS_Thread_Descriptor
000000000003a2a0 g     F .text	000000000000000c              _ZN4Json17ValueIteratorBaseC2Ev
0000000000000000       F *UND*	0000000000000000              RAND_bytes@@OPENSSL_1_1_0
0000000000000000       F *UND*	0000000000000000              _ZNSt7__cxx1119basic_istringstreamIcSt11char_traitsIcESaIcEED1Ev@@GLIBCXX_3.4.21
0000000000047810 g     F .text	0000000000000022              _ZN4Json6Reader18addErrorAndRecoverERKNSt7__cxx1112basic_stringIcSt11char_traitsIcESaIcEEERNS0_5TokenENS0_9TokenTypeE
000000000003dc80 g     F .text	0000000000000062              _ZN4Json23BuiltStyledStreamWriter11writeIndentEv
0000000000043680 g     F .text	0000000000000287              _ZN4Json4Path8makePathERKNSt7__cxx1112basic_stringIcSt11char_traitsIcESaIcEEERKSt6vectorIPKNS_12PathArgumentESaISC_EE
000000000002b7f0 g     F .text	0000000000000b2c              _ZN8CSpaTask19onQuerySpaLogoutMsgEv
0000000000017ce0 g     F .text	0000000000000628              _ZN10ConfigFile4saveENSt7__cxx1112basic_stringIcSt11char_traitsIcESaIcEEE
00000000002609d0  w    O .data.rel.ro	0000000000000018              _ZTIN4Json23BuiltStyledStreamWriterE
0000000000022630 g     F .text	000000000000151e              _Z13onKnockUDPMsgP17SpaRegisterParamsNSt7__cxx1112basic_stringIcSt11char_traitsIcESaIcEEEiib
0000000000042f50 g     F .text	000000000000008d              _ZNK4Json4Path7resolveERKNS_5ValueE
000000000003a3d0 g     F .text	0000000000000005              _ZN4Json13ValueIteratorC1ERKSt17_Rb_tree_iteratorISt4pairIKNS_5Value8CZStringES3_EE
0000000000000000       F *UND*	0000000000000000              _ZSt4endlIcSt11char_traitsIcEERSt13basic_ostreamIT_T0_ES6_@@GLIBCXX_3.4
0000000000260858  w    O .data.rel.ro	0000000000000010              _ZTI8CSpaTask
0000000000039b50 g     F .text	000000000000005f              _ZN4Json6Reader19readCppStyleCommentEv
000000000004ff50  w    F .text	00000000000001d3              _ZNSt5dequeIPN4Json5ValueESaIS2_EE16_M_push_back_auxIJS2_EEEvDpOT_
0000000000024b80  w    F .text	0000000000000469              _ZNSt6vectorI15AppResourceInfoSaIS0_EE19_M_emplace_back_auxIIRKS0_EEEvDpOT_
0000000000000000       F *UND*	0000000000000000              __cxa_allocate_exception@@CXXABI_1.3
0000000000046230 g     F .text	000000000000030d              _ZN4Json6ReaderC2Ev
000000000003c620 g     F .text	0000000000000244              _ZN4Json9OurReader9readTokenERNS0_5TokenE
000000000003b480 g     F .text	0000000000000026              _ZN4Json5ValueC1ERKNS_12StaticStringE
0000000000043e10 g     F .text	000000000000009d              _ZN4Json23BuiltStyledStreamWriter5writeERKNS_5ValueEPSo
000000000002a6d0 g     F .text	000000000000006c              _ZN8CSpaTask20startCheckUserStatusEv
0000000000000000       F *UND*	0000000000000000              _ZN10CSslVpnMgr13setSslvpnUserE11_SslvpnUser
000000000003d220 g     F .text	0000000000000027              _ZN4Json10FastWriterC1Ev
000000000004e430  w    F .text	0000000000000013              _ZN4Json10LogicErrorD2Ev
000000000003db10 g     F .text	000000000000011a              _ZN4Json18StyledStreamWriter32writeCommentAfterValueOnSameLineERKNS_5ValueE
0000000000019de0 g     F .text	0000000000000413              _Z22ParseChangeUserPwdRespP17SpaRegisterParamsRKNSt7__cxx1112basic_stringIcSt11char_traitsIcESaIcEEE
0000000000042560 g     F .text	00000000000000dc              _ZN4Json5ValueD1Ev
000000000003d250 g     F .text	0000000000000005              _ZN4Json10FastWriter23enableYAMLCompatibilityEv
0000000000039980 g     F .text	000000000000005c              _ZN4Json6Reader5matchEPKci
000000000003bac0 g     F .text	00000000000001f0              _ZNK4Json5Value6asUIntEv
0000000000262160 g     O .bss	0000000000000018              _ZN4Json5Value4nullE
0000000000000000       F *UND*	0000000000000000              strncpy@@GLIBC_2.2.5
000000000004b510 g     F .text	0000000000000053              _ZN4Json19StreamWriterBuilderC2Ev
000000000003b3f0 g     F .text	0000000000000022              _ZN4Json5ValueC1Ex
0000000000000000       F *UND*	0000000000000000              _ZSt20__throw_length_errorPKc@@GLIBCXX_3.4
000000000004f160  w    F .text	0000000000000258              _ZNSt6vectorIN4Json12PathArgumentESaIS1_EE19_M_emplace_back_auxIJRKS1_EEEvDpOT_
0000000000000000       F *UND*	0000000000000000              _ZNSt7__cxx1112basic_stringIcSt11char_traitsIcESaIcEE9_M_assignERKS4_@@GLIBCXX_3.4.21
000000000004c9c0 g     F .text	000000000000039d              _ZN4Json9OurReader9readValueEv
000000000003dd50 g     F .text	000000000000003b              _ZN4Json23BuiltStyledStreamWriter8unindentEv
00000000000426b0 g     F .text	0000000000000017              _ZN4Json19StreamWriterBuilderD0Ev
000000000003b760 g     F .text	0000000000000005              _ZNK4Json5ValuentEv
0000000000000000       F *UND*	0000000000000000              memset@@GLIBC_2.2.5
000000000003a680 g     F .text	0000000000000008              _ZN4Json5Value11CommentInfoC2Ev
0000000000050130  w    F .text	0000000000000035              _ZNSt5dequeIPN4Json5ValueESaIS2_EE12emplace_backIIS2_EEEvDpOT_
000000000004ff20  w    F .text	000000000000002d              _ZNSt6vectorIPKN4Json12PathArgumentESaIS3_EE12emplace_backIIS3_EEEvDpOT_
0000000000045f50 g     F .text	00000000000002d3              _ZN4Json6ReaderC2ERKNS_8FeaturesE
0000000000024440  w    F .text	00000000000001ca              _ZN10ConfigFileD1Ev
00000000000563e8 g     O .rodata	0000000000000008              _ZN4Json5Value14maxLargestUIntE
000000000003a3e0 g     F .text	0000000000000020              _ZN4Json13ValueIteratorC1ERKNS_18ValueConstIteratorE
0000000000000000       F *UND*	0000000000000000              pthread_create@@GLIBC_2.2.5
0000000000016670 g     F .text	000000000000001f              _Z12ConfigSocketPv12curlsocktypeP13curl_sockaddr
000000000003a3d0 g     F .text	0000000000000005              _ZN4Json13ValueIteratorC2ERKSt17_Rb_tree_iteratorISt4pairIKNS_5Value8CZStringES3_EE
00000000000506b0  w    F .text	00000000000000df              _ZNSt5dequeIN4Json9OurReader9ErrorInfoESaIS2_EE16_M_push_back_auxIIRKS2_EEEvDpOT_
00000000000443f0 g     F .text	000000000000054a              _ZN4Json12StyledWriter10writeValueERKNS_5ValueE
000000000004a040 g     F .text	0000000000000066              _ZNK4Json5Value3getEPKcRKS0_
000000000004e6f0  w    F .text	00000000000000d4              _ZN4Json23BuiltStyledStreamWriterD0Ev
0000000000051350  w    O .rodata	000000000000000b              _ZTS9CConveyor
000000000003a0b0 g     F .text	000000000000004c              _ZN4Json9OurReader10readStringEv
000000000004f9a0  w    F .text	00000000000000f4              _ZNSt5dequeIN4Json9OurReader9ErrorInfoESaIS2_EE19_M_destroy_data_auxESt15_Deque_iteratorIS2_RS2_PS2_ES8_
0000000000260988  w    O .data.rel.ro	0000000000000018              _ZTIN4Json10FastWriterE
0000000000000000       F *UND*	0000000000000000              __sprintf_chk@@GLIBC_2.3.4
000000000003def0 g     F .text	00000000000001cc              _ZN4Json23BuiltStyledStreamWriter32writeCommentAfterValueOnSameLineERKNS_5ValueE
000000000003b1c0 g     F .text	00000000000000c6              _ZNK4Json5Value9asCStringEv
0000000000000000       O *UND*	0000000000000000              _ZTVSt13basic_fstreamIcSt11char_traitsIcEE@@GLIBCXX_3.4
0000000000045db0 g     F .text	0000000000000194              _ZNK4Json17CharReaderBuilder13newCharReaderEv
0000000000000000       F *UND*	0000000000000000              _ZSt28_Rb_tree_rebalance_for_erasePSt18_Rb_tree_node_baseRS_@@GLIBCXX_3.4
000000000003b390 g     F .text	0000000000000023              _ZN4Json5ValueC1Ei
000000000003c3e0 g     F .text	00000000000000fb              _ZN4Json9OurReader10addCommentEPKcS2_NS_16CommentPlacementE
0000000000000000       F *UND*	0000000000000000              __snprintf_chk@@GLIBC_2.3.4
000000000001b380 g     F .text	000000000000009d              _Z12calcChecksumli
000000000004edd0  w    F .text	0000000000000059              _ZNSt8_Rb_treeIN4Json5Value8CZStringESt4pairIKS2_S1_ESt10_Select1stIS5_ESt4lessIS2_ESaIS5_EE8_M_eraseEPSt13_Rb_tree_nodeIS5_E
0000000000000000       F *UND*	0000000000000000              _ZSt18_Rb_tree_decrementPKSt18_Rb_tree_node_base@@GLIBCXX_3.4
000000000003a860 g     F .text	00000000000000f7              _ZN4Json5Value8CZStringC2ERKS1_
000000000004f8d0  w    F .text	00000000000000c8              _ZNSt5dequeIN4Json6Reader9ErrorInfoESaIS2_EED2Ev
000000000004ff50  w    F .text	00000000000001d3              _ZNSt5dequeIPN4Json5ValueESaIS2_EE16_M_push_back_auxIIS2_EEEvDpOT_
0000000000000000       F *UND*	0000000000000000              _ZNSt7__cxx1112basic_stringIcSt11char_traitsIcESaIcEED1Ev@@GLIBCXX_3.4.21
000000000004a8b0 g     F .text	0000000000000207              _ZN4Json5Value11removeIndexEjPS0_
000000000003bfd0 g     F .text	000000000000000e              _ZN4Json5Value10setCommentERKNSt7__cxx1112basic_stringIcSt11char_traitsIcESaIcEEENS_16CommentPlacementE
0000000000000000       O *UND*	0000000000000000              _ZTVSt15basic_streambufIcSt11char_traitsIcEE@@GLIBCXX_3.4
0000000000000000       F *UND*	0000000000000000              __assert_fail@@GLIBC_2.2.5
000000000003d980 g     F .text	000000000000003b              _ZN4Json18StyledStreamWriter8unindentEv
0000000000031670 g     F .text	00000000000018c4              _ZN8CSpaTask22onStartSslvpnHandShakeEP17SpaRegisterParams
000000000004b630 g     F .text	0000000000000423              _ZN4Json6Reader10readObjectERNS0_5TokenE
0000000000000000       F *UND*	0000000000000000              _ZNSi10_M_extractIdEERSiRT_@@GLIBCXX_3.4.9
0000000000000000       F *UND*	0000000000000000              _Z13SendSpaLogoutii
0000000000046540 g     F .text	000000000000015b              _ZN4Json4PathC2ERKNSt7__cxx1112basic_stringIcSt11char_traitsIcESaIcEEERKNS_12PathArgumentESB_SB_SB_SB_
000000000004a000 g     F .text	0000000000000036              _ZNK4Json5Value3getEPKcS2_RKS0_
0000000000056420 g     O .rodata	0000000000000004              _ZN4Json5Value6minIntE
000000000004e510  w    F .text	000000000000002d              _ZN4Json10FastWriterD1Ev
0000000000000000       F *UND*	0000000000000000              _ZNSo9_M_insertImEERSoT_@@GLIBCXX_3.4.9
0000000000000000       F *UND*	0000000000000000              _Z12utl_WriteLogPKciS0_z
0000000000000000       F *UND*	0000000000000000              _ZNSo5flushEv@@GLIBCXX_3.4
000000000003bcb0 g     F .text	0000000000000092              _ZNK4Json5Value7isInt64Ev
000000000002a780 g     F .text	0000000000000080              _ZN8CSpaTask25startCheckUserStatusTimerEv
0000000000050c10  w    F .text	0000000000000153              _ZNSt8_Rb_treeIN4Json5Value8CZStringESt4pairIKS2_S1_ESt10_Select1stIS5_ESt4lessIS2_ESaIS5_EE22_M_emplace_hint_uniqueIJRKSt21piecewise_construct_tSt5tupleIJRS4_EESG_IJEEEEESt17_Rb_tree_iteratorIS5_ESt23_Rb_tree_const_iteratorIS5_EDpOT_
00000000002609a0  w    O .data.rel.ro	0000000000000018              _ZTIN4Json12StyledWriterE
0000000000000000       F *UND*	0000000000000000              _ZSt18_Rb_tree_incrementPSt18_Rb_tree_node_base@@GLIBCXX_3.4
0000000000000000       O *UND*	0000000000000000              _ZTVN10__cxxabiv117__class_type_infoE@@CXXABI_1.3
0000000000000000       F *UND*	0000000000000000              _Z15iNodeDisplayVerv
00000000000400d0 g     F .text	0000000000000398              _ZNK4Json5Value8asDoubleEv
0000000000018d20  w    F .text	0000000000000184              _ZNSt8_Rb_treeINSt7__cxx1112basic_stringIcSt11char_traitsIcESaIcEEESt4pairIKS5_S5_ESt10_Select1stIS8_ESt4lessIS5_ESaIS8_EE22_M_emplace_hint_uniqueIJRKSt21piecewise_construct_tSt5tupleIJOS5_EESJ_IJEEEEESt17_Rb_tree_iteratorIS8_ESt23_Rb_tree_const_iteratorIS8_EDpOT_
0000000000000000       F *UND*	0000000000000000              _ZSt19__throw_logic_errorPKc@@GLIBCXX_3.4
00000000002607d0 g     O .data.rel.ro	0000000000000008              _ZN4Json8kNullRefE
000000000003e150 g     F .text	0000000000000002              _ZN4Json12StreamWriter7FactoryD1Ev
0000000000036220 g     F .text	0000000000000045              _Z9getHostIDRi
0000000000000000       F *UND*	0000000000000000              _ZNSt7__cxx1112basic_stringIcSt11char_traitsIcESaIcEE4swapERS4_@@GLIBCXX_3.4.21
0000000000000000       F *UND*	0000000000000000              __cxa_free_exception@@CXXABI_1.3
0000000000029300 g     F .text	00000000000009be              _ZN8CSpaTask20onQuerySpaAppListMsgERK10_SpaVpnCfgR14_SpaVpnCfgResp
000000000003c950 g     F .text	000000000000009a              _ZNK4Json5Value5beginEv
000000000004e7d0  w    F .text	0000000000000055              _ZNSt6vectorINSt7__cxx1112basic_stringIcSt11char_traitsIcESaIcEEESaIS5_EED2Ev
000000000004e990  w    F .text	0000000000000055              _ZNSt11_Deque_baseIPN4Json5ValueESaIS2_EED1Ev
000000000003b390 g     F .text	0000000000000023              _ZN4Json5ValueC2Ei
0000000000050ed4 g     F .fini	0000000000000000              _fini
0000000000018f80 g     F .text	00000000000001db              _Z22AssembleDevRegisterReqP17SpaRegisterParamsRNSt7__cxx1112basic_stringIcSt11char_traitsIcESaIcEEE
000000000003cba0 g     F .text	000000000000001e              _ZN4Json12PathArgumentC2Ej
0000000000019160 g     F .text	0000000000000302              _Z18AssemblePwdAuthReqP17SpaRegisterParamsRNSt7__cxx1112basic_stringIcSt11char_traitsIcESaIcEEE
0000000000044a10 g     F .text	00000000000000f5              _ZNK4Json5Value14toStyledStringB5cxx11Ev
0000000000000000       F *UND*	0000000000000000              _Z14utl_GetRealStrPKc
0000000000000000       F *UND*	0000000000000000              _ZNSt7__cxx1118basic_stringstreamIcSt11char_traitsIcESaIcEED1Ev@@GLIBCXX_3.4.21
000000000003d8c0 g     F .text	000000000000005b              _ZN4Json18StyledStreamWriter11writeIndentEv
0000000000000000       F *UND*	0000000000000000              sleep@@GLIBC_2.2.5
000000000003a010 g     F .text	000000000000003f              _ZN4Json9OurReader17readCStyleCommentEv
0000000000000000       F *UND*	0000000000000000              pthread_mutex_unlock@@GLIBC_2.2.5
0000000000042640 g     F .text	0000000000000018              _ZN4Json17CharReaderBuilderD1Ev
0000000000056408 g     O .rodata	0000000000000008              _ZN4Json5Value8maxInt64E
000000000003bfe0 g     F .text	00000000000000fb              _ZN4Json6Reader10addCommentEPKcS2_NS_16CommentPlacementE
0000000000047980 g     F .text	000000000000017c              _ZN4Json9OurReader27decodeUnicodeEscapeSequenceERNS0_5TokenERPKcS4_Rj
0000000000056410 g     O .rodata	0000000000000008              _ZN4Json5Value8minInt64E
00000000000420c0 g     F .text	0000000000000497              _ZNK4Json5Value14getMemberNamesB5cxx11Ev
0000000000000000       F *UND*	0000000000000000              _Z12getIpVersionNSt7__cxx1112basic_stringIcSt11char_traitsIcESaIcEEE
0000000000000000       O *UND*	0000000000000000              _ZTTSt13basic_fstreamIcSt11char_traitsIcEE@@GLIBCXX_3.4
0000000000262138 g     O .bss	0000000000000008              _ZN8CSpaTask9c_spaTaskE
00000000002608f0  w    O .data.rel.ro	0000000000000018              _ZTIN4Json10LogicErrorE
000000000003af40 g     F .text	000000000000001a              _ZNK4Json5ValueleERKS0_
00000000000349b0  w    F .text	0000000000000002              _ZN24ACE_OS_Thread_DescriptorD1Ev
000000000004f160  w    F .text	0000000000000258              _ZNSt6vectorIN4Json12PathArgumentESaIS1_EE19_M_emplace_back_auxIIRKS1_EEEvDpOT_
000000000004eeb0  w    F .text	00000000000002a6              _ZNSt6vectorIN4Json12PathArgumentESaIS1_EE12emplace_backIIS1_EEEvDpOT_
0000000000042fe0 g     F .text	0000000000000501              _ZN4Json10FastWriter10writeValueERKNS_5ValueE
0000000000000000       F *UND*	0000000000000000              _Z15getLinuxVersionPci
00000000000359d0 g     F .text	00000000000002aa              _Z13pingIPAndPortNSt7__cxx1112basic_stringIcSt11char_traitsIcESaIcEEEii
000000000003d3c0 g     F .text	0000000000000093              _ZN4Json12StyledWriter6indentEv
0000000000018800  w    F .text	0000000000000073              _ZN10ConfigFile9ExceptionC1ENSt7__cxx1112basic_stringIcSt11char_traitsIcESaIcEEE
0000000000000000       F *UND*	0000000000000000              memcpy@@GLIBC_2.14
000000000003d220 g     F .text	0000000000000027              _ZN4Json10FastWriterC2Ev
0000000000000000       F *UND*	0000000000000000              connect@@GLIBC_2.2.5
000000000003e100 g     F .text	0000000000000017              _ZN4Json12StreamWriterC1Ev
000000000001bd70 g     F .text	0000000000000292              _Z11generateOTPNSt7__cxx1112basic_stringIcSt11char_traitsIcESaIcEEElibi
000000000004a360 g     F .text	0000000000000213              _ZN4Json5ValueixEj
0000000000000000       F *UND*	0000000000000000              _ZNSt7__cxx1119basic_ostringstreamIcSt11char_traitsIcESaIcEEC1ESt13_Ios_Openmode@@GLIBCXX_3.4.21
0000000000000000       F *UND*	0000000000000000              system@@GLIBC_2.2.5
0000000000000000       F *UND*	0000000000000000              _ZNSt7__cxx1112basic_stringIcSt11char_traitsIcESaIcEE9push_backEc@@GLIBCXX_3.4.21
000000000003be70 g     F .text	0000000000000008              _ZNK4Json5Value8isObjectEv
0000000000042660 g     F .text	0000000000000017              _ZN4Json17CharReaderBuilderD0Ev
0000000000000000       F *UND*	0000000000000000              __strcpy_chk@@GLIBC_2.3.4
0000000000260ad8  w    O .data.rel.ro	0000000000000028              _ZTVN4Json10FastWriterE
000000000004f3c0  w    F .text	0000000000000211              _ZNSt6vectorINSt7__cxx1112basic_stringIcSt11char_traitsIcESaIcEEESaIS5_EE19_M_emplace_back_auxIJRKS5_EEEvDpOT_
0000000000024250  w    F .text	000000000000004a              _ZNSt6vectorI13SpaKnocksInfoSaIS0_EE5clearEv
000000000003a4c0 g     F .text	000000000000004a              _ZN4Json17throwRuntimeErrorERKNSt7__cxx1112basic_stringIcSt11char_traitsIcESaIcEEE
000000000003a4a0 g     F .text	0000000000000019              _ZN4Json10LogicErrorC1ERKNSt7__cxx1112basic_stringIcSt11char_traitsIcESaIcEEE
0000000000000000       F *UND*	0000000000000000              _ZN10CSslClient14isReConnectingEv
000000000002d260 g     F .text	000000000000132c              _ZN8CSpaTask14onQRCodeReqMsgERK10_SpaVpnCfgR11SQRCodeResp
0000000000018770  w    F .text	0000000000000003              _ZNKSt5ctypeIcE8do_widenEc
00000000000211a0 g     F .text	00000000000000fb              _Z16GetSpaKeyBySdpIPNSt7__cxx1112basic_stringIcSt11char_traitsIcESaIcEEE
0000000000044ca0 g     F .text	0000000000000394              _ZN4Json12StyledWriter15writeArrayValueERKNS_5ValueE
000000000003d1f0 g     F .text	0000000000000002              _ZN4Json6WriterD2Ev
0000000000056530  w    O .rodata	0000000000000016              _ZTSN4Json12StreamWriterE
0000000000000000       F *UND*	0000000000000000              __cxa_atexit@@GLIBC_2.2.5
00000000000564f0  w    O .rodata	000000000000001b              _ZTSN4Json17CharReaderBuilderE
0000000000024330  w    F .text	00000000000000a1              _ZStplIcSt11char_traitsIcESaIcEENSt7__cxx1112basic_stringIT_T0_T1_EEPKS5_RKS8_
0000000000018780  w    F .text	0000000000000005              _ZNK10ConfigFile9Exception4whatEv
0000000000000000       F *UND*	0000000000000000              pthread_self@@GLIBC_2.2.5
0000000000262060 g     O .data	0000000000000024              DIGITS_POWER
000000000004fe30  w    F .text	00000000000000ea              _ZNSt6vectorIPKN4Json12PathArgumentESaIS3_EE19_M_emplace_back_auxIIS3_EEEvDpOT_
000000000001fda0 g     F .text	0000000000000039              _Z16ParseSmsAuthRespP17SpaRegisterParamsRKNSt7__cxx1112basic_stringIcSt11char_traitsIcESaIcEEE
000000000003dc70 g     F .text	0000000000000002              _ZN4Json12StyledWriter18hasCommentForValueERKNS_5ValueE
0000000000024930  w    F .text	0000000000000249              _ZNSt6vectorI13SpaKnocksInfoSaIS0_EE19_M_emplace_back_auxIIRKS0_EEEvDpOT_
0000000000000000       F *UND*	0000000000000000              _ZNSt13basic_filebufIcSt11char_traitsIcEE4openEPKcSt13_Ios_Openmode@@GLIBCXX_3.4
0000000000039560 g     F .text	000000000000002d              _ZN4Json9ExceptionD1Ev
00000000000435b0 g     F .text	0000000000000029              _ZNK4Json5Value8isMemberEPKc
000000000004fbe0  w    F .text	0000000000000129              _ZN4Json13OurCharReaderD2Ev
00000000000429b0 g     F .text	0000000000000115              _ZNK4Json5Value4findEPKcS2_
0000000000000000       F *UND*	0000000000000000              _ZNSolsEs@@GLIBCXX_3.4
000000000004dee0 g     F .text	0000000000000009              _ZN4Json17CharReaderBuilderixENSt7__cxx1112basic_stringIcSt11char_traitsIcESaIcEEE
0000000000037220 g     F .text	0000000000000e2b              _Z17saveChallengeTimeNSt7__cxx1112basic_stringIcSt11char_traitsIcESaIcEEES4_
000000000001e2a0 g     F .text	0000000000001af5              _Z16ParsePwdAuthRespP17SpaRegisterParamsRKNSt7__cxx1112basic_stringIcSt11char_traitsIcESaIcEEEb
0000000000040e90 g     F .text	0000000000000005              _ZNK4Json5Value12asLargestIntEv
0000000000039bb0 g     F .text	000000000000004c              _ZN4Json6Reader10readStringEv
000000000002a800 g     F .text	0000000000000039              _ZN8CSpaTask24stopCheckUserStatusTimerEv
0000000000000000       F *UND*	0000000000000000              clock_gettime@@GLIBC_2.17
0000000000000000       F *UND*	0000000000000000              chmod@@GLIBC_2.2.5
0000000000050ae0  w    F .text	0000000000000125              _ZNSt8_Rb_treeIN4Json5Value8CZStringESt4pairIKS2_S1_ESt10_Select1stIS5_ESt4lessIS2_ESaIS5_EE29_M_get_insert_hint_unique_posESt23_Rb_tree_const_iteratorIS5_ERS4_
0000000000000000       F *UND*	0000000000000000              time@@GLIBC_2.2.5
0000000000018800  w    F .text	0000000000000073              _ZN10ConfigFile9ExceptionC2ENSt7__cxx1112basic_stringIcSt11char_traitsIcESaIcEEE
0000000000000000       F *UND*	0000000000000000              getsockname@@GLIBC_2.2.5
00000000000398a0 g     F .text	0000000000000008              _ZN4Json8FeaturesC1Ev
000000000003e180 g     F .text	0000000000000089              _ZN4Json18StyledStreamWriterC2ENSt7__cxx1112basic_stringIcSt11char_traitsIcESaIcEEE
0000000000000000       F *UND*	0000000000000000              strcpy@@GLIBC_2.2.5
00000000000427d0 g     F .text	000000000000012d              _ZNK4Json5ValueixEj
0000000000018d20  w    F .text	0000000000000184              _ZNSt8_Rb_treeINSt7__cxx1112basic_stringIcSt11char_traitsIcESaIcEEESt4pairIKS5_S5_ESt10_Select1stIS8_ESt4lessIS5_ESaIS8_EE22_M_emplace_hint_uniqueIIRKSt21piecewise_construct_tSt5tupleIIOS5_EESJ_IIEEEEESt17_Rb_tree_iteratorIS8_ESt23_Rb_tree_const_iteratorIS8_EDpOT_
0000000000000000       O *UND*	0000000000000000              _ZTTNSt7__cxx1119basic_istringstreamIcSt11char_traitsIcESaIcEEE@@GLIBCXX_3.4.21
0000000000000000       F *UND*	0000000000000000              _ZdlPv@@GLIBCXX_3.4
0000000000260978  w    O .data.rel.ro	0000000000000010              _ZTIN4Json6WriterE
0000000000000000       F *UND*	0000000000000000              _ZNSo9_M_insertIlEERSoT_@@GLIBCXX_3.4.9
0000000000049550 g     F .text	000000000000008d              _ZN4Json6Reader12decodeNumberERNS0_5TokenE
00000000000241f0  w    F .text	0000000000000052              _ZN15AppResourceInfoD1Ev
0000000000000000       F *UND*	0000000000000000              srand@@GLIBC_2.2.5
000000000003e3c0 g     F .text	000000000000039e              _ZN4Json11writeStringB5cxx11ERKNS_12StreamWriter7FactoryERKNS_5ValueE
0000000000000000       F *UND*	0000000000000000              curl_easy_cleanup
000000000004ff20  w    F .text	000000000000002d              _ZNSt6vectorIPKN4Json12PathArgumentESaIS3_EE12emplace_backIJS3_EEEvDpOT_
0000000000039fd0 g     F .text	0000000000000002              _ZN4Json6Reader12currentValueEv
0000000000262150 g     O .bss	0000000000000008              _ZN4Json5Value7nullRefE
00000000000243e0  w    F .text	000000000000005a              _ZNSt8_Rb_treeINSt7__cxx1112basic_stringIcSt11char_traitsIcESaIcEEESt4pairIKS5_S5_ESt10_Select1stIS8_ESt4lessIS5_ESaIS8_EE8_M_eraseEPSt13_Rb_tree_nodeIS8_E
0000000000000000       O *UND*	0000000000000000              _ZTVNSt7__cxx1119basic_ostringstreamIcSt11char_traitsIcESaIcEEE@@GLIBCXX_3.4.21
0000000000000000       F *UND*	0000000000000000              _Z4trimPc
000000000004e480  w    F .text	0000000000000088              _ZN4Json12StyledWriterD1Ev
000000000003d260 g     F .text	0000000000000061              _ZN4Json12StyledWriterC2Ev
000000000003c9f0 g     F .text	000000000000009a              _ZNK4Json5Value3endEv
000000000003a830 g     F .text	0000000000000021              _ZN4Json5Value8CZStringC1EPKcjNS1_17DuplicationPolicyE
0000000000050130  w    F .text	0000000000000035              _ZNSt5dequeIPN4Json5ValueESaIS2_EE12emplace_backIJS2_EEEvDpOT_
000000000003ab60 g     F .text	000000000000004c              _ZNK4Json17ValueIteratorBase10memberNameEPPKc
000000000003be50 g     F .text	0000000000000008              _ZNK4Json5Value8isStringEv
0000000000000000       F *UND*	0000000000000000              _ZStlsISt11char_traitsIcEERSt13basic_ostreamIcT_ES5_PKc@@GLIBCXX_3.4
0000000000260a10  w    O .data.rel.ro	0000000000000028              _ZTVN4Json10LogicErrorE
0000000000000000       F *UND*	0000000000000000              fclose@@GLIBC_2.2.5
0000000000043980 g     F .text	000000000000048b              _ZN4Json23BuiltStyledStreamWriter10writeValueERKNS_5ValueE
0000000000000000       F *UND*	0000000000000000              _Znwm@@GLIBCXX_3.4
0000000000000000       F *UND*	0000000000000000              inet_addr@@GLIBC_2.2.5
0000000000043600 g     F .text	000000000000007c              _ZN4Json4Path12addPathInArgERKNSt7__cxx1112basic_stringIcSt11char_traitsIcESaIcEEERKSt6vectorIPKNS_12PathArgumentESaISC_EERN9__gnu_cxx17__normal_iteratorIPKSC_SE_EENSA_4KindE
0000000000024610  w    F .text	0000000000000315              _ZNSt6vectorI17RemoteGatewayInfoSaIS0_EE19_M_emplace_back_auxIJRKS0_EEEvDpOT_
0000000000019cd0 g     F .text	0000000000000104              _Z20AssembleSmsLogoutReqP17SpaRegisterParamsRNSt7__cxx1112basic_stringIcSt11char_traitsIcESaIcEEE
000000000003a380 g     F .text	000000000000000e              _ZN4Json17ValueIteratorBase4copyERKS0_
0000000000000000       F *UND*	0000000000000000              _ZdlPvm@@CXXABI_1.3.9
000000000003d150 g     F .text	0000000000000042              _ZN4Json13valueToStringB5cxx11Ed
000000000002a900 g     F .text	0000000000000ee7              _ZN8CSpaTask13sslVpnConnectER11_SslvpnUserRKNSt7__cxx1112basic_stringIcSt11char_traitsIcESaIcEEE
00000000002608a0  w    O .data.rel.ro	0000000000000020              _ZTV8CSpaTask
00000000000467e0 g     F .text	000000000000017c              _ZN4Json6Reader27decodeUnicodeEscapeSequenceERNS0_5TokenERPKcS4_Rj
0000000000056550  w    O .rodata	000000000000001d              _ZTSN4Json19StreamWriterBuilderE
0000000000000000       O *UND*	0000000000000000              _ZTVNSt7__cxx1118basic_stringstreamIcSt11char_traitsIcESaIcEEE@@GLIBCXX_3.4.21
00000000000212a0 g     F .text	0000000000001383              _Z13onKnockUDPMsgP17SpaRegisterParamsb
000000000003b1a0 g     F .text	0000000000000011              _ZNK4Json5ValueneERKS0_
0000000000000000       F *UND*	0000000000000000              _ZNSt13basic_filebufIcSt11char_traitsIcEEC1Ev@@GLIBCXX_3.4
000000000001cab0 g     F .text	0000000000000e21              _Z13SaveInfo2FileNSt7__cxx1112basic_stringIcSt11char_traitsIcESaIcEEES4_
0000000000000000       F *UND*	0000000000000000              pthread_detach@@GLIBC_2.2.5
0000000000000000       F *UND*	0000000000000000              _ZSt18_Rb_tree_decrementPSt18_Rb_tree_node_base@@GLIBCXX_3.4
0000000000050a40  w    F .text	000000000000009e              _ZNSt8_Rb_treeIN4Json5Value8CZStringESt4pairIKS2_S1_ESt10_Select1stIS5_ESt4lessIS2_ESaIS5_EE24_M_get_insert_unique_posERS4_
0000000000000000       F *UND*	0000000000000000              _ZN10CSslVpnMgr8instanceEv
0000000000000000       F *UND*	0000000000000000              inet_ntop@@GLIBC_2.2.5
0000000000260ba0  w    O .data.rel.ro	0000000000000028              _ZTVN4Json19StreamWriterBuilderE
000000000003b450 g     F .text	000000000000002a              _ZN4Json5ValueC2Ed
000000000004acf0 g     F .text	0000000000000008              _ZN4Json5ValueixERKNS_12StaticStringE
000000000003a6b0 g     F .text	000000000000016f              _ZN4Json5Value11CommentInfo10setCommentEPKcm
0000000000049e10 g     F .text	000000000000008d              _ZN4Json9OurReader12decodeNumberERNS0_5TokenE
000000000001fde0 g     F .text	0000000000000138              _Z12SaveUniqueIDNSt7__cxx1112basic_stringIcSt11char_traitsIcESaIcEEE
0000000000035860  w    F .text	000000000000009d              _ZN17SSLVPNOptionsInfoD2Ev
000000000003cb70 g     F .text	0000000000000022              _ZN4Json12PathArgumentC1Ev
0000000000046230 g     F .text	000000000000030d              _ZN4Json6ReaderC1Ev
0000000000024b80  w    F .text	0000000000000469              _ZNSt6vectorI15AppResourceInfoSaIS0_EE19_M_emplace_back_auxIJRKS0_EEEvDpOT_
000000000004def0 g     F .text	0000000000000078              _ZNK4Json4Path4makeERNS_5ValueE
000000000004a7d0 g     F .text	00000000000000b0              _ZN4Json5ValueixEi
000000000004e480  w    F .text	0000000000000088              _ZN4Json12StyledWriterD2Ev
000000000003ca90 g     F .text	0000000000000066              _ZN4Json5Value5beginEv
000000000003a3a0 g     F .text	0000000000000005              _ZN4Json18ValueConstIteratorC2ERKSt17_Rb_tree_iteratorISt4pairIKNS_5Value8CZStringES3_EE
0000000000000000       F *UND*	0000000000000000              strcasecmp@@GLIBC_2.2.5
0000000000000000       O *UND*	0000000000000000              _ZTTNSt7__cxx1119basic_ostringstreamIcSt11char_traitsIcESaIcEEE@@GLIBCXX_3.4.21
0000000000000000       F *UND*	0000000000000000              _ZN10CSslClient11conn2RemoteERK11_SslvpnUserRK10_SslVpnCfgRNSt7__cxx1112basic_stringIcSt11char_traitsIcESaIcEEERiSC_P17SpaRegisterParams
000000000003af90 g     F .text	0000000000000031              _ZNK4Json5Value7compareERKS0_
00000000000349c0  w    F .text	0000000000000002              _ZN26ACE_Thread_Descriptor_BaseD1Ev
000000000003e0c0 g     F .text	000000000000003f              _ZN4Json23BuiltStyledStreamWriter18hasCommentForValueERKNS_5ValueE
00000000000565a0  w    O .rodata	0000000000000016              _ZTSN4Json12StyledWriterE
0000000000000000       F *UND*	0000000000000000              utl_base64_decode
000000000003c870 g     F .text	000000000000003b              _ZN4Json9OurReader17skipCommentTokensERNS0_5TokenE
0000000000043eb0 g     F .text	00000000000001a0              _ZN4Json23BuiltStyledStreamWriter14isMultineArrayERKNS_5ValueE
0000000000046960 g     F .text	00000000000001af              _ZN4Json6Reader22decodeUnicodeCodePointERNS0_5TokenERPKcS4_Rj
000000000003ac40 g     F .text	000000000000003f              _ZN4Json5Value11swapPayloadERS0_
000000000003c8d0 g     F .text	000000000000007c              _ZNK4Json5Value10getCommentB5cxx11ENS_16CommentPlacementE
0000000000000000       F *UND*	0000000000000000              fseek@@GLIBC_2.2.5
0000000000000000       F *UND*	0000000000000000              __stack_chk_fail@@GLIBC_2.4
000000000003e210 g     F .text	00000000000001a4              _ZN4Json23BuiltStyledStreamWriterC2ERKNSt7__cxx1112basic_stringIcSt11char_traitsIcESaIcEEENS_12CommentStyle4EnumES8_S8_S8_bj
000000000003a050 g     F .text	000000000000005f              _ZN4Json9OurReader19readCppStyleCommentEv
00000000000141f0 g     F .init	0000000000000000              _init
000000000003b700 g     F .text	0000000000000031              _ZN4Json5ValueC2ERKNSt7__cxx1112basic_stringIcSt11char_traitsIcESaIcEEE
000000000004e990  w    F .text	0000000000000055              _ZNSt11_Deque_baseIPN4Json5ValueESaIS2_EED2Ev
000000000004e540  w    F .text	000000000000003a              _ZN4Json10FastWriterD0Ev
000000000003a3b0 g     F .text	000000000000000e              _ZN4Json18ValueConstIteratoraSERKNS_17ValueIteratorBaseE
000000000003acc0 g     F .text	000000000000027d              _ZNK4Json5ValueltERKS0_
0000000000018310 g     F .text	0000000000000456              _ZN10ConfigFile5parseEv
000000000004b570 g     F .text	000000000000009d              _ZN4JsonlsERSoRKNS_5ValueE
0000000000000000       F *UND*	0000000000000000              gethostbyname@@GLIBC_2.2.5
0000000000000000       F *UND*	0000000000000000              _ZSt16__ostream_insertIcSt11char_traitsIcEERSt13basic_ostreamIT_T0_ES6_PKS3_l@@GLIBCXX_3.4.9
0000000000000000       F *UND*	0000000000000000              _ZNKSt5ctypeIcE13_M_widen_initEv@@GLIBCXX_3.4.11
0000000000260ab0  w    O .data.rel.ro	0000000000000028              _ZTVN4Json6WriterE
0000000000024ff0  w    F .text	0000000000000171              _ZNSt8_Rb_treeINSt7__cxx1112basic_stringIcSt11char_traitsIcESaIcEEESt4pairIKS5_S5_ESt10_Select1stIS8_ESt4lessIS5_ESaIS8_EE22_M_emplace_hint_uniqueIJRKSt21piecewise_construct_tSt5tupleIJRS7_EESJ_IJEEEEESt17_Rb_tree_iteratorIS8_ESt23_Rb_tree_const_iteratorIS8_EDpOT_
000000000003b5d0 g     F .text	0000000000000033              _ZN4Json5ValueC1EPKcS2_
000000000003a2a0 g     F .text	000000000000000c              _ZN4Json17ValueIteratorBaseC1Ev
00000000000349e0  w    F .text	000000000000000a              _ZN24ACE_OS_Thread_DescriptorD0Ev
000000000004f7d0  w    F .text	00000000000000f4              _ZNSt5dequeIN4Json6Reader9ErrorInfoESaIS2_EE19_M_destroy_data_auxESt15_Deque_iteratorIS2_RS2_PS2_ES8_
0000000000000000       F *UND*	0000000000000000              _ZSt18_Rb_tree_incrementPKSt18_Rb_tree_node_base@@GLIBCXX_3.4
0000000000050890  w    F .text	00000000000001ac              _ZNSt8_Rb_treeIN4Json5Value8CZStringESt4pairIKS2_S1_ESt10_Select1stIS5_ESt4lessIS2_ESaIS5_EE7_M_copyINSB_11_Alloc_nodeEEEPSt13_Rb_tree_nodeIS5_EPKSF_SG_RT_
0000000000000000       F *UND*	0000000000000000              _ZNSt7__cxx1112basic_stringIcSt11char_traitsIcESaIcEE12_M_constructEmc@@GLIBCXX_3.4.21
00000000000166c0 g     F .text	0000000000000060              _ZN9CConveyorC1EPKcm
0000000000000000  w      *UND*	0000000000000000              _Jv_RegisterClasses
0000000000047840 g     F .text	000000000000013a              _ZN4Json9OurReader8addErrorERKNSt7__cxx1112basic_stringIcSt11char_traitsIcESaIcEEERNS0_5TokenEPKc
0000000000016690 g     F .text	0000000000000023              _ZN9CConveyorC2Ev
0000000000000000       F *UND*	0000000000000000              _ZNSt7__cxx1112basic_stringIcSt11char_traitsIcESaIcEE8_M_eraseEmm@@GLIBCXX_3.4.21
00000000002608c0  w    O .data.rel.ro	0000000000000018              _ZTIN4Json9ExceptionE
0000000000029cc0 g     F .text	00000000000000e8              _ZN8CSpaTask8KnockSpaENSt7__cxx1112basic_stringIcSt11char_traitsIcESaIcEEEi
000000000003a690 g     F .text	0000000000000012              _ZN4Json5Value11CommentInfoD2Ev
0000000000000000       F *UND*	0000000000000000              free@@GLIBC_2.2.5
0000000000017540  w    F .text	00000000000001d9              _ZN4Json6ReaderD2Ev
0000000000260808  w    O .data.rel.ro	0000000000000018              _ZTIN10ConfigFile9ExceptionE
0000000000000000       F *UND*	0000000000000000              curl_slist_free_all
0000000000056570  w    O .rodata	000000000000000f              _ZTSN4Json6WriterE
0000000000260868  w    O .data.rel.ro	0000000000000018              _ZTI26ACE_Thread_Descriptor_Base
000000000003a390 g     F .text	0000000000000005              _ZN4Json18ValueConstIteratorC2Ev
000000000001a6e0 g     F .text	00000000000003db              _Z16ParseSmsVirfRespP17SpaRegisterParamsRKNSt7__cxx1112basic_stringIcSt11char_traitsIcESaIcEEE
0000000000051480  w    O .rodata	0000000000000019              _ZTSN10ConfigFile9ExceptionE
000000000003a680 g     F .text	0000000000000008              _ZN4Json5Value11CommentInfoC1Ev
0000000000000000       F *UND*	0000000000000000              _ZN10CSslClient8instanceEv
0000000000040b60 g     F .text	0000000000000005              _ZNK4Json5Value13asLargestUIntEv
0000000000056490  w    O .rodata	0000000000000014              _ZTSN4Json10LogicErrorE
000000000002a5e0 g     F .text	00000000000000ef              _ZN8CSpaTask15openResourceURLEPKc
0000000000000000         *UND*	0000000000000000              g_OnlineInfo
000000000004e830  w    F .text	0000000000000158              _ZNSt6vectorINSt7__cxx1112basic_stringIcSt11char_traitsIcESaIcEEESaIS5_EE7reserveEm
000000000003aa80 g     F .text	0000000000000004              _ZNK4Json5Value8CZString4dataEv
000000000003be30 g     F .text	0000000000000019              _ZNK4Json5Value9isNumericEv
000000000004e620  w    F .text	00000000000000c7              _ZN4Json23BuiltStyledStreamWriterD1Ev
0000000000025170 g     F .text	000000000000005a              _ZN8CSpaTaskD1Ev
0000000000032f40 g     F .text	00000000000004ee              _ZN8CSpaTask16onStartProcessGWEv
00000000000399e0 g     F .text	00000000000000f6              _ZN4Json6Reader10readNumberEv
0000000000000000       F *UND*	0000000000000000              getaddrinfo@@GLIBC_2.2.5
0000000000260a88  w    O .data.rel.ro	0000000000000028              _ZTVN4Json9ExceptionE
00000000000495e0 g     F .text	00000000000005df              _ZN4Json9OurReader12decodeDoubleERNS0_5TokenERNS_5ValueE
0000000000039590 g     F .text	0000000000000017              _ZN4Json9ExceptionD0Ev
0000000000000000       F *UND*	0000000000000000              _ZSt16__throw_bad_castv@@GLIBCXX_3.4
0000000000260848  w    O .data.rel.ro	0000000000000010              _ZTI24ACE_OS_Thread_Descriptor
000000000003a150 g     F .text	000000000000007d              _ZNK4Json9OurReader24getLocationLineAndColumnEPKcRiS3_
00000000000398b0 g     F .text	000000000000003a              _ZN4Json8Features3allEv
000000000003aa90 g     F .text	0000000000000023              _ZNK4Json17ValueIteratorBase10memberNameEv
00000000000411e0 g     F .text	00000000000002be              _ZNK4Json5Value15isConvertibleToENS_9ValueTypeE
0000000000000000       F *UND*	0000000000000000              _ZStrsIcSt11char_traitsIcESaIcEERSt13basic_istreamIT_T0_ES7_RNSt7__cxx1112basic_stringIS4_S5_T1_EE@@GLIBCXX_3.4.21
0000000000000000       F *UND*	0000000000000000              gethostid@@GLIBC_2.2.5
0000000000033430 g     F .text	0000000000001576              _ZN8CSpaTask20onQuerySpaSmsAuthMsgERK10_SpaVpnCfgR14_SpaVpnCfgResp
0000000000000000       O *UND*	0000000000000000              _ZSt4cout@@GLIBCXX_3.4
0000000000000000       F *UND*	0000000000000000              __cxa_call_unexpected@@CXXABI_1.3
0000000000000000       O *UND*	0000000000000000              _ZTVN10__cxxabiv120__si_class_type_infoE@@CXXABI_1.3
000000000003fd90 g     F .text	0000000000000340              _ZNK4Json5Value6asBoolEv
00000000000164a0 g     F .text	000000000000002a              _ZN9CConveyorD2Ev
0000000000029db0 g     F .text	00000000000006cf              _ZN8CSpaTask23onQuerySpaUserStatusMsgEv
0000000000000000       F *UND*	0000000000000000              freeaddrinfo@@GLIBC_2.2.5
0000000000000000       F *UND*	0000000000000000              _ZNSt7__cxx1115basic_stringbufIcSt11char_traitsIcESaIcEE7_M_syncEPcmm@@GLIBCXX_3.4.21
000000000003a2b0 g     F .text	000000000000000b              _ZN4Json17ValueIteratorBaseC2ERKSt17_Rb_tree_iteratorISt4pairIKNS_5Value8CZStringES3_EE
000000000003c8b0 g     F .text	000000000000001b              _ZNK4Json5Value10hasCommentENS_16CommentPlacementE
00000000000473e0 g     F .text	000000000000042c              _ZN4Json6Reader16recoverFromErrorENS0_9TokenTypeE
00000000000489b0 g     F .text	0000000000000022              _ZN4Json9OurReader18addErrorAndRecoverERKNSt7__cxx1112basic_stringIcSt11char_traitsIcESaIcEEERNS0_5TokenENS0_9TokenTypeE
0000000000000000       F *UND*	0000000000000000              _ZN10CSslClient10setEadInfoENSt7__cxx1112basic_stringIcSt11char_traitsIcESaIcEEE
000000000004f5e0  w    F .text	00000000000000d9              _ZNSt11_Deque_baseIPN4Json5ValueESaIS2_EE17_M_initialize_mapEm
000000000003d920 g     F .text	0000000000000033              _ZN4Json18StyledStreamWriter15writeWithIndentERKNSt7__cxx1112basic_stringIcSt11char_traitsIcESaIcEEE
0000000000000000       F *UND*	0000000000000000              _Z18getProtoIDByConnIDt
000000000003cc10 g     F .text	000000000000004c              _ZN4Json12PathArgumentC1ERKNSt7__cxx1112basic_stringIcSt11char_traitsIcESaIcEEE
000000000003ba20 g     F .text	0000000000000098              _ZNK4Json5Value6isUIntEv
0000000000000000       F *UND*	0000000000000000              malloc@@GLIBC_2.2.5
000000000004f6c0  w    F .text	0000000000000102              _ZNSt11_Deque_baseIN4Json6Reader9ErrorInfoESaIS2_EE17_M_initialize_mapEm
0000000000034eb0  w    F .text	0000000000000943              _ZN17SpaRegisterParamsC1Ev
0000000000260b28  w    O .data.rel.ro	0000000000000028              _ZTVN4Json23BuiltStyledStreamWriterE
0000000000000000       F *UND*	0000000000000000              _Z10setSdpUserb
000000000003bfa0 g     F .text	000000000000002a              _ZN4Json5Value10setCommentEPKcNS_16CommentPlacementE
0000000000044940 g     F .text	00000000000000c6              _ZN4Json12StyledWriter5writeB5cxx11ERKNS_5ValueE
000000000003e130 g     F .text	0000000000000017              _ZN4Json12StreamWriterD0Ev
00000000000450b0 g     F .text	000000000000049d              _ZN4Json18StyledStreamWriter10writeValueERKNS_5ValueE
0000000000000000       F *UND*	0000000000000000              _ZNSt9basic_iosIcSt11char_traitsIcEE4initEPSt15basic_streambufIcS1_E@@GLIBCXX_3.4
00000000000362e0 g     F .text	00000000000001e9              _Z13getCurrentMacRKNSt7__cxx1112basic_stringIcSt11char_traitsIcESaIcEEEi
000000000004e3e0  w    F .text	0000000000000013              _ZN4Json12RuntimeErrorD1Ev
0000000000044050 g     F .text	0000000000000330              _ZN4Json23BuiltStyledStreamWriter15writeArrayValueERKNS_5ValueE
0000000000000000       O *UND*	0000000000000000              stderr@@GLIBC_2.2.5
0000000000046b10 g     F .text	00000000000006e1              _ZN4Json6Reader12decodeStringERNS0_5TokenERNSt7__cxx1112basic_stringIcSt11char_traitsIcESaIcEEE
0000000000039d70 g     F .text	000000000000004a              _ZN4Json11OurFeatures3allEv
000000000001b420 g     F .text	00000000000003cb              _Z18ParseSpaLogoutRespP17SpaRegisterParamsRKNSt7__cxx1112basic_stringIcSt11char_traitsIcESaIcEEE
000000000003afd0 g     F .text	00000000000001ce              _ZNK4Json5ValueeqERKS0_
0000000000260928  w    O .data.rel.ro	0000000000000018              _ZTIN4Json17CharReaderBuilderE
00000000002609e8  w    O .data.rel.ro	0000000000000028              _ZTVN4Json12RuntimeErrorE
0000000000260a60  w    O .data.rel.ro	0000000000000028              _ZTVN4Json17CharReaderBuilderE
0000000000056510  w    O .rodata	000000000000001e              _ZTSN4Json12StreamWriter7FactoryE
000000000003a2c0 g     F .text	0000000000000008              _ZNK4Json17ValueIteratorBase5derefEv
0000000000050d70  w    F .text	00000000000000d8              _ZNSt8_Rb_treeIN4Json5Value8CZStringESt4pairIKS2_S1_ESt10_Select1stIS5_ESt4lessIS2_ESaIS5_EE17_M_insert_unique_IRS5_NSB_11_Alloc_nodeEEESt17_Rb_tree_iteratorIS5_ESt23_Rb_tree_const_iteratorIS5_EOT_RT0_
0000000000262180 g       .bss	0000000000000000              _end
000000000001b7f0 g     F .text	0000000000000579              _Z27ParseSpaCheckUserStatusRespP17SpaRegisterParamsRKNSt7__cxx1112basic_stringIcSt11char_traitsIcESaIcEEE
000000000004e7d0  w    F .text	0000000000000055              _ZNSt6vectorINSt7__cxx1112basic_stringIcSt11char_traitsIcESaIcEEESaIS5_EED1Ev
00000000000242a0  w    F .text	000000000000003c              _ZNSt7__cxx1115basic_stringbufIcSt11char_traitsIcESaIcEED2Ev
0000000000040810 g     F .text	0000000000000347              _ZNK4Json5Value8asUInt64Ev
0000000000000000       F *UND*	0000000000000000              tmpfile@@GLIBC_2.2.5
0000000000000000       F *UND*	0000000000000000              _ZN6ACE_OS14itoa_emulationEiPci
0000000000042f20 g     F .text	000000000000002f              _ZNK4Json5ValueixERKNSt7__cxx1112basic_stringIcSt11char_traitsIcESaIcEEE
000000000003bec0 g     F .text	00000000000000dd              _ZN4Json5Value10setCommentEPKcmNS_16CommentPlacementE
00000000000349b0  w    F .text	0000000000000002              _ZN24ACE_OS_Thread_DescriptorD2Ev
0000000000000000       F *UND*	0000000000000000              strcmp@@GLIBC_2.2.5
0000000000019470 g     F .text	00000000000002ce              _Z21AssembleQRCodeAuthReqP17SpaRegisterParamsRNSt7__cxx1112basic_stringIcSt11char_traitsIcESaIcEEE
0000000000050320  w    F .text	00000000000000df              _ZNSt5dequeIN4Json6Reader9ErrorInfoESaIS2_EE16_M_push_back_auxIJRKS2_EEEvDpOT_
0000000000260918  w    O .data.rel.ro	0000000000000010              _ZTIN4Json10CharReaderE
0000000000000000       F *UND*	0000000000000000              strtol@@GLIBC_2.2.5
0000000000049ea0 g     F .text	00000000000000c4              _ZN4Json5Value12removeMemberEPKcS2_PS0_
0000000000000000       F *UND*	0000000000000000              ioctl@@GLIBC_2.2.5
000000000002c320 g     F .text	0000000000000f33              _ZN8CSpaTask19onQuerySpaSmsReqMsgERK10_SpaVpnCfgR14_SpaVpnCfgResp
0000000000000000       F *UND*	0000000000000000              _ZNSt6localeD1Ev@@GLIBCXX_3.4
0000000000260a38  w    O .data.rel.ro	0000000000000028              _ZTVN4Json13OurCharReaderE
0000000000000000       F *UND*	0000000000000000              usleep@@GLIBC_2.2.5
0000000000047b00 g     F .text	00000000000001af              _ZN4Json9OurReader22decodeUnicodeCodePointERNS0_5TokenERPKcS4_Rj
00000000000274c0 g     F .text	0000000000001371              _ZN8CSpaTask20onQuerySpaPwdAuthMsgERK10_SpaVpnCfgR14_SpaVpnCfgResp
000000000003a4a0 g     F .text	0000000000000019              _ZN4Json10LogicErrorC2ERKNSt7__cxx1112basic_stringIcSt11char_traitsIcESaIcEEE
000000000003af60 g     F .text	0000000000000011              _ZNK4Json5ValuegeERKS0_
000000000003a960 g     F .text	0000000000000020              _ZN4Json5Value8CZStringD1Ev
000000000003dcf0 g     F .text	0000000000000039              _ZN4Json23BuiltStyledStreamWriter15writeWithIndentERKNSt7__cxx1112basic_stringIcSt11char_traitsIcESaIcEEE
0000000000048c50 g     F .text	0000000000000069              _ZN4Json5ValueaSERKS0_
000000000001aac0 g     F .text	00000000000008bb              _Z16ParseWeComQRRespP17SpaRegisterParamsRKNSt7__cxx1112basic_stringIcSt11char_traitsIcESaIcEEE
0000000000000000       F *UND*	0000000000000000              curl_easy_setopt
000000000003b450 g     F .text	000000000000002a              _ZN4Json5ValueC1Ed
0000000000017540  w    F .text	00000000000001d9              _ZN4Json6ReaderD1Ev
00000000000241b0  w    F .text	0000000000000032              _ZN17RemoteGatewayInfoD2Ev
000000000003d2d0 g     F .text	00000000000000b7              _ZN4Json12StyledWriter11writeIndentEv
0000000000000000       F *UND*	0000000000000000              _Z11SendAuthMsgiPKc
000000000003dd90 g     F .text	0000000000000155              _ZN4Json23BuiltStyledStreamWriter23writeCommentBeforeValueERKNS_5ValueE
0000000000018790  w    F .text	000000000000002d              _ZN10ConfigFile9ExceptionD2Ev
000000000003a3c0 g     F .text	0000000000000005              _ZN4Json13ValueIteratorC1Ev
000000000003a1d0 g     F .text	00000000000000cf              _ZNK4Json9OurReader24getLocationLineAndColumnB5cxx11EPKc
000000000004ba60 g     F .text	00000000000002b0              _ZN4Json6Reader9readValueEv
0000000000260820  w    O .data.rel.ro	0000000000000028              _ZTVN10ConfigFile9ExceptionE
000000000003a480 g     F .text	0000000000000019              _ZN4Json12RuntimeErrorC2ERKNSt7__cxx1112basic_stringIcSt11char_traitsIcESaIcEEE
0000000000000000       F *UND*	0000000000000000              __cxa_rethrow@@CXXABI_1.3
000000000003cb00 g     F .text	0000000000000066              _ZN4Json5Value3endEv
00000000000241b0  w    F .text	0000000000000032              _ZN17RemoteGatewayInfoD1Ev
00000000000489e0 g     F .text	0000000000000268              _ZN4Json5ValueC2ERKS0_
0000000000000000       F *UND*	0000000000000000              pthread_mutex_lock@@GLIBC_2.2.5
000000000004a580 g     F .text	0000000000000242              _ZN4Json5Value6resizeEj
000000000003dc30 g     F .text	000000000000003f              _ZN4Json18StyledStreamWriter18hasCommentForValueERKNS_5ValueE
0000000000049fc0 g     F .text	0000000000000039              _ZNK4Json5Value3getEjRKS0_
000000000003a510 g     F .text	000000000000004a              _ZN4Json15throwLogicErrorERKNSt7__cxx1112basic_stringIcSt11char_traitsIcESaIcEEE
000000000004e450  w    F .text	0000000000000025              _ZN4Json10LogicErrorD0Ev
000000000003d9c0 g     F .text	0000000000000145              _ZN4Json18StyledStreamWriter23writeCommentBeforeValueERKNS_5ValueE
0000000000042680 g     F .text	0000000000000025              _ZN4Json19StreamWriterBuilderD1Ev
000000000003a860 g     F .text	00000000000000f7              _ZN4Json5Value8CZStringC1ERKS1_
000000000003d1f0 g     F .text	0000000000000002              _ZN4Json6WriterD1Ev
000000000003a820 g     F .text	000000000000000b              _ZN4Json5Value8CZStringC2Ej
000000000004e400  w    F .text	0000000000000025              _ZN4Json12RuntimeErrorD0Ev
0000000000000000       F *UND*	0000000000000000              fread@@GLIBC_2.2.5
0000000000000000       F *UND*	0000000000000000              _ZNSt7__cxx1115basic_stringbufIcSt11char_traitsIcESaIcEE3strERKNS_12basic_stringIcS2_S3_EE@@GLIBCXX_3.4.21
00000000002607d8  w    O .data.rel.ro	0000000000000010              _ZTI9CConveyor
000000000004b510 g     F .text	0000000000000053              _ZN4Json19StreamWriterBuilderC1Ev
000000000003cf30 g     F .text	000000000000003d              _ZN4Json13valueToStringB5cxx11Ej
00000000002620d8 g       .bss	0000000000000000              __bss_start
000000000003b830 g     F .text	00000000000001ef              _ZNK4Json5Value5asIntEv
000000000003d1a0 g     F .text	0000000000000046              _ZN4Json13valueToStringB5cxx11Eb
0000000000050320  w    F .text	00000000000000df              _ZNSt5dequeIN4Json6Reader9ErrorInfoESaIS2_EE16_M_push_back_auxIIRKS2_EEEvDpOT_
000000000003b750 g     F .text	0000000000000008              _ZNK4Json5Value6isNullEv
000000000004a240 g     F .text	000000000000003e              _ZN4Json5Value12removeMemberERKNSt7__cxx1112basic_stringIcSt11char_traitsIcESaIcEEE
0000000000000000       F *UND*	0000000000000000              _ZSt24__throw_out_of_range_fmtPKcz@@GLIBCXX_3.4.20
0000000000000000       O *UND*	0000000000000000              _ZTVSt13basic_filebufIcSt11char_traitsIcEE@@GLIBCXX_3.4
000000000004e3d0 g     F .text	0000000000000009              _ZN4Json19StreamWriterBuilderixENSt7__cxx1112basic_stringIcSt11char_traitsIcESaIcEEE
000000000003a690 g     F .text	0000000000000012              _ZN4Json5Value11CommentInfoD1Ev
0000000000025170 g     F .text	000000000000005a              _ZN8CSpaTaskD2Ev
000000000004df70 g     F .text	0000000000000455              _ZNK4Json19StreamWriterBuilder8validateEPNS_5ValueE
0000000000039c80 g     F .text	00000000000000cf              _ZNK4Json6Reader24getLocationLineAndColumnB5cxx11EPKc
0000000000000000       F *UND*	0000000000000000              _ZNSt8ios_base4InitC1Ev@@GLIBCXX_3.4
000000000003b4b0 g     F .text	0000000000000021              _ZN4Json5ValueC2Eb
0000000000000000       F *UND*	0000000000000000              _ZNSt7__cxx1112basic_stringIcSt11char_traitsIcESaIcEE10_M_replaceEmmPKcm@@GLIBCXX_3.4.21
0000000000260880  w    O .data.rel.ro	0000000000000020              _ZTV26ACE_Thread_Descriptor_Base
0000000000260960  w    O .data.rel.ro	0000000000000018              _ZTIN4Json19StreamWriterBuilderE
000000000003a400 g     F .text	0000000000000020              _ZN4Json13ValueIteratorC2ERKS0_
0000000000035800  w    F .text	000000000000005b              _ZN9CConveyor8instanceEv
00000000000414a0 g     F .text	00000000000005e1              _ZNK4Json6Reader25getFormattedErrorMessagesB5cxx11Ev
000000000004e580  w    F .text	0000000000000095              _ZN4Json12StyledWriterD0Ev
000000000004eeb0  w    F .text	00000000000002a6              _ZNSt6vectorIN4Json12PathArgumentESaIS1_EE12emplace_backIJS1_EEEvDpOT_
0000000000000000       F *UND*	0000000000000000              _ZNSt13basic_filebufIcSt11char_traitsIcEED1Ev@@GLIBCXX_3.4
0000000000000000       F *UND*	0000000000000000              _ZNSt7__cxx1112basic_stringIcSt11char_traitsIcESaIcEE7reserveEm@@GLIBCXX_3.4.21
000000000004cd60 g     F .text	000000000000038b              _ZN4Json9OurReader5parseEPKcS2_RNS_5ValueEb
000000000003aac0 g     F .text	0000000000000084              _ZNK4Json17ValueIteratorBase5indexEv
0000000000000000       F *UND*	0000000000000000              _ZN10CSslClient13setVpnVersionE14ESslVpnVersion
000000000004e620  w    F .text	00000000000000c7              _ZN4Json23BuiltStyledStreamWriterD2Ev
000000000003a390 g     F .text	0000000000000005              _ZN4Json18ValueConstIteratorC1Ev
0000000000018a70  w    F .text	00000000000002aa              _ZNSt8_Rb_treeINSt7__cxx1112basic_stringIcSt11char_traitsIcESaIcEEESt4pairIKS5_S5_ESt10_Select1stIS8_ESt4lessIS5_ESaIS8_EE29_M_get_insert_hint_unique_posESt23_Rb_tree_const_iteratorIS8_ERS7_
000000000005641c g     O .rodata	0000000000000004              _ZN4Json5Value6maxIntE
00000000002620c8 g     O .data	0000000000000008              STR_WECOM_URL_FORMAT
000000000003acb0 g     F .text	0000000000000005              _ZNK4Json5Value4typeEv
0000000000000000       F *UND*	0000000000000000              _ZNKSt7__cxx1115basic_stringbufIcSt11char_traitsIcESaIcEE3strEv@@GLIBCXX_3.4.21
0000000000043910 g     F .text	0000000000000069              _ZN4Json23BuiltStyledStreamWriter9pushValueERKNSt7__cxx1112basic_stringIcSt11char_traitsIcESaIcEEE
00000000000241f0  w    F .text	0000000000000052              _ZN15AppResourceInfoD2Ev
0000000000048cc0 g     F .text	00000000000005df              _ZN4Json6Reader12decodeDoubleERNS0_5TokenERNS_5ValueE
000000000003a100 g     F .text	000000000000004c              _ZN4Json9OurReader21readStringSingleQuoteEv
000000000003c220 g     F .text	000000000000017c              _ZN4Json6Reader9readTokenERNS0_5TokenE
00000000000349f0  w    F .text	00000000000004b9              _ZN17SpaRegisterParams5resetEv
0000000000056400 g     O .rodata	0000000000000008              _ZN4Json5Value9maxUInt64E
000000000003bd50 g     F .text	00000000000000a0              _ZNK4Json5Value8isUInt64Ev
00000000000489e0 g     F .text	0000000000000268              _ZN4Json5ValueC1ERKS0_
000000000003b700 g     F .text	0000000000000031              _ZN4Json5ValueC1ERKNSt7__cxx1112basic_stringIcSt11char_traitsIcESaIcEEE
000000000003c3a0 g     F .text	000000000000003b              _ZN4Json6Reader17skipCommentTokensERNS0_5TokenE
000000000002a840 g     F .text	00000000000000b4              _ZN8CSpaTask18onQRCodeAuthCancelEi
000000000002a740 g     F .text	0000000000000040              _Z20CheckUserStatusTimerPv
0000000000000000       F *UND*	0000000000000000              memmove@@GLIBC_2.2.5
0000000000025740 g     F .text	0000000000001d7c              _ZN8CSpaTask16onQRCodeQueryRstERK10_SpaVpnCfgR14_SpaVpnCfgResp
000000000003b2f0 g     F .text	0000000000000073              _ZNK4Json5Value4sizeEv
0000000000019b90 g     F .text	000000000000012c              _Z26AssembleCheckUserStatusReqP17SpaRegisterParamsRNSt7__cxx1112basic_stringIcSt11char_traitsIcESaIcEEE
000000000003a2b0 g     F .text	000000000000000b              _ZN4Json17ValueIteratorBaseC1ERKSt17_Rb_tree_iteratorISt4pairIKNS_5Value8CZStringES3_EE
00000000000242a0  w    F .text	000000000000003c              _ZNSt7__cxx1115basic_stringbufIcSt11char_traitsIcESaIcEED1Ev
0000000000000000       F *UND*	0000000000000000              __cxa_end_catch@@CXXABI_1.3
00000000000492a0 g     F .text	000000000000008d              _ZN4Json6Reader12decodeDoubleERNS0_5TokenE
0000000000019a60 g     F .text	0000000000000127              _Z25AssembleSecondAuthCodeReqP17SpaRegisterParamsRNSt7__cxx1112basic_stringIcSt11char_traitsIcESaIcEEE
0000000000000000       F *UND*	0000000000000000              __fprintf_chk@@GLIBC_2.3.4
0000000000038050 g     F .text	0000000000000dfb              _Z16getChallengeTimeNSt7__cxx1112basic_stringIcSt11char_traitsIcESaIcEEE
0000000000000000       F *UND*	0000000000000000              logX
000000000003ac80 g     F .text	0000000000000028              _ZN4Json5Value4swapERS0_
000000000003b610 g     F .text	00000000000000e9              _ZNK4Json17ValueIteratorBase3keyEv
0000000000000000       F *UND*	0000000000000000              __gxx_personality_v0@@CXXABI_1.3
000000000004faa0  w    F .text	0000000000000136              _ZN4Json13OurCharReaderD0Ev
000000000003ce20 g     F .text	00000000000000cb              _ZN4Json13valueToStringB5cxx11Ey
000000000002a480 g     F .text	0000000000000154              _Z13Get_HOTP_CodeNSt7__cxx1112basic_stringIcSt11char_traitsIcESaIcEEERS4_
000000000003be60 g     F .text	0000000000000008              _ZNK4Json5Value7isArrayEv
0000000000023c40 g     F .text	0000000000000565              _Z13GetHardDiskIDRNSt7__cxx1112basic_stringIcSt11char_traitsIcESaIcEEE
00000000000506b0  w    F .text	00000000000000df              _ZNSt5dequeIN4Json9OurReader9ErrorInfoESaIS2_EE16_M_push_back_auxIJRKS2_EEEvDpOT_
000000000003e760 g     F .text	0000000000000afa              _ZN4Json19valueToQuotedStringB5cxx11EPKc
00000000000434f0 g     F .text	0000000000000093              _ZN4Json10FastWriter5writeB5cxx11ERKNS_5ValueE
0000000000024ff0  w    F .text	0000000000000171              _ZNSt8_Rb_treeINSt7__cxx1112basic_stringIcSt11char_traitsIcESaIcEEESt4pairIKS5_S5_ESt10_Select1stIS8_ESt4lessIS5_ESaIS8_EE22_M_emplace_hint_uniqueIIRKSt21piecewise_construct_tSt5tupleIIRS7_EESJ_IIEEEEESt17_Rb_tree_iteratorIS8_ESt23_Rb_tree_const_iteratorIS8_EDpOT_
0000000000049bc0 g     F .text	000000000000008d              _ZN4Json9OurReader12decodeDoubleERNS0_5TokenE
0000000000000000       F *UND*	0000000000000000              _Z19detectNetworkByPingPKc
000000000003a3e0 g     F .text	0000000000000020              _ZN4Json13ValueIteratorC2ERKNS_18ValueConstIteratorE
000000000004a0b0 g     F .text	000000000000004b              _ZNK4Json5Value3getERKNSt7__cxx1112basic_stringIcSt11char_traitsIcESaIcEEERKS0_
0000000000000000       F *UND*	0000000000000000              _Z5Sleepl
000000000003b290 g     F .text	0000000000000056              _ZNK4Json5Value9getStringEPPKcS3_
000000000003a420 g     F .text	000000000000000e              _ZN4Json13ValueIteratoraSERKS0_
000000000003cb70 g     F .text	0000000000000022              _ZN4Json12PathArgumentC2Ev
0000000000050c10  w    F .text	0000000000000153              _ZNSt8_Rb_treeIN4Json5Value8CZStringESt4pairIKS2_S1_ESt10_Select1stIS5_ESt4lessIS2_ESaIS5_EE22_M_emplace_hint_uniqueIIRKSt21piecewise_construct_tSt5tupleIIRS4_EESG_IIEEEEESt17_Rb_tree_iteratorIS5_ESt23_Rb_tree_const_iteratorIS5_EDpOT_
0000000000044380 g     F .text	0000000000000069              _ZN4Json12StyledWriter9pushValueERKNSt7__cxx1112basic_stringIcSt11char_traitsIcESaIcEEE
00000000000564b0  w    O .rodata	000000000000001c              _ZTSN4Json10CharReader7FactoryE
000000000004e3e0  w    F .text	0000000000000013              _ZN4Json12RuntimeErrorD2Ev
0000000000000000       F *UND*	0000000000000000              __memcpy_chk@@GLIBC_2.3.4
000000000003b590 g     F .text	0000000000000037              _ZN4Json5ValueC1EPKc
0000000000050170  w    F .text	00000000000001a2              _ZNSt5dequeIN4Json6Reader9ErrorInfoESaIS2_EE17_M_reallocate_mapEmb
000000000003bdf0 g     F .text	0000000000000019              _ZNK4Json5Value10isIntegralEv
0000000000039fe0 g     F .text	0000000000000023              _ZN4Json9OurReader11getNextCharEv
0000000000000000       F *UND*	0000000000000000              _ZNSt9basic_iosIcSt11char_traitsIcEE5clearESt12_Ios_Iostate@@GLIBCXX_3.4
000000000002f180 g     F .text	0000000000001028              _ZN8CSpaTask23onQuerySpaSecondAuthMsgERK10_SpaVpnCfgR14_SpaVpnCfgResp
0000000000042ad0 g     F .text	0000000000000041              _ZNK4Json5ValueixEPKc
00000000000435e0 g     F .text	0000000000000012              _ZNK4Json5Value8isMemberERKNSt7__cxx1112basic_stringIcSt11char_traitsIcESaIcEEE
000000000002e590 g     F .text	0000000000000bed              _ZN8CSpaTask19onQuerySpaLogoutMsgERK10_SpaVpnCfgR14_SpaVpnCfgResp
0000000000260908  w    O .data.rel.ro	0000000000000010              _ZTIN4Json10CharReader7FactoryE
0000000000000000       F *UND*	0000000000000000              __cxa_throw@@CXXABI_1.3
0000000000050400  w    F .text	00000000000000fe              _ZNSt5dequeIN4Json6Reader9ErrorInfoESaIS2_EE23_M_new_elements_at_backEm
000000000001a200 g     F .text	00000000000004d8              _Z23ParseSecondAuthCodeRespP17SpaRegisterParamsRKNSt7__cxx1112basic_stringIcSt11char_traitsIcESaIcEEE
0000000000042b20 g     F .text	00000000000003fb              _ZNK4Json19StreamWriterBuilder15newStreamWriterEv
00000000000455e0 g     F .text	0000000000000195              _ZN4Json18StyledStreamWriter14isMultineArrayERKNS_5ValueE
0000000000018790  w    F .text	000000000000002d              _ZN10ConfigFile9ExceptionD1Ev
000000000004b350 g     F .text	0000000000000044              _ZN4Json17CharReaderBuilderC2Ev
000000000003e120 g     F .text	0000000000000002              _ZN4Json12StreamWriterD1Ev
0000000000000000       F *UND*	0000000000000000              _ZNSolsEi@@GLIBCXX_3.4
0000000000000000       F *UND*	0000000000000000              _ZNKSt7__cxx1112basic_stringIcSt11char_traitsIcESaIcEE4findEPKcmm@@GLIBCXX_3.4.21
0000000000045780 g     F .text	00000000000002b8              _ZN4Json18StyledStreamWriter15writeArrayValueERKNS_5ValueE
0000000000000000       F *UND*	0000000000000000              freeifaddrs@@GLIBC_2.3
000000000003cef0 g     F .text	000000000000003e              _ZN4Json13valueToStringB5cxx11Ei
0000000000020f10 g     F .text	0000000000000287              _Z18AssembleSmsAuthReqP17SpaRegisterParamsRNSt7__cxx1112basic_stringIcSt11char_traitsIcESaIcEEE
0000000000035f60 g     F .text	00000000000002b9              _Z19getHostIpFromDomainNSt7__cxx1112basic_stringIcSt11char_traitsIcESaIcEEE
000000000003e120 g     F .text	0000000000000002              _ZN4Json12StreamWriterD2Ev
0000000000054530  w    O .rodata	000000000000001d              _ZTS26ACE_Thread_Descriptor_Base
000000000003ac30 g     F .text	0000000000000008              _ZNK4Json5Value8CZString14isStaticStringEv
0000000000000000  w      *UND*	0000000000000000              _ITM_deregisterTMCloneTable
0000000000000000       F *UND*	0000000000000000              strpbrk@@GLIBC_2.2.5
000000000003b4e0 g     F .text	00000000000000af              _ZN4Json5ValueC2ENS_9ValueTypeE
0000000000000000       F *UND*	0000000000000000              _Unwind_Resume@@GCC_3.0
0000000000045040 g     F .text	0000000000000065              _ZN4Json18StyledStreamWriter9pushValueERKNSt7__cxx1112basic_stringIcSt11char_traitsIcESaIcEEE
0000000000000000       F *UND*	0000000000000000              setsockopt@@GLIBC_2.2.5
0000000000000000       F *UND*	0000000000000000              modf@@GLIBC_2.2.5
000000000003d200 g     F .text	0000000000000017              _ZN4Json6WriterD0Ev
000000000003a9b0 g     F .text	000000000000006a              _ZNK4Json5Value8CZStringltERKS1_
000000000003cbc0 g     F .text	000000000000004c              _ZN4Json12PathArgumentC1EPKc
0000000000000000       F *UND*	0000000000000000              _ZNSt7__cxx1112basic_stringIcSt11char_traitsIcESaIcEE9_M_createERmm@@GLIBCXX_3.4.21
000000000003dd30 g     F .text	0000000000000011              _ZN4Json23BuiltStyledStreamWriter6indentEv
000000000004fe30  w    F .text	00000000000000ea              _ZNSt6vectorIPKN4Json12PathArgumentESaIS3_EE19_M_emplace_back_auxIJS3_EEEvDpOT_
000000000003b770 g     F .text	0000000000000008              _ZNK4Json5Value6isBoolEv
000000000003ab50 g     F .text	0000000000000007              _ZNK4Json5Value8CZString6lengthEv
00000000000483a0 g     F .text	00000000000000db              _ZN4Json9OurReader12decodeStringERNS0_5TokenE
000000000004b3a0 g     F .text	000000000000016a              _ZN4Json19StreamWriterBuilder11setDefaultsEPNS_5ValueE
0000000000000000       F *UND*	0000000000000000              _ZNSt7__cxx1112basic_stringIcSt11char_traitsIcESaIcEE9_M_mutateEmmPKcm@@GLIBCXX_3.4.21
0000000000000000       F *UND*	0000000000000000              HMAC@@OPENSSL_1_1_0
000000000003be80 g     F .text	000000000000003a              _ZNK4Json5Value5emptyEv
0000000000019cc0 g     F .text	0000000000000005              _Z21AssembleGetAppListReqP17SpaRegisterParamsRNSt7__cxx1112basic_stringIcSt11char_traitsIcESaIcEEE
000000000004fd10  w    F .text	00000000000000de              _ZNSt8_Rb_treeIN4Json5Value8CZStringESt4pairIKS2_S1_ESt10_Select1stIS5_ESt4lessIS2_ESaIS5_EE11equal_rangeERS4_
0000000000041ad0 g     F .text	00000000000005e1              _ZNK4Json9OurReader25getFormattedErrorMessagesB5cxx11Ev
0000000000260950  w    O .data.rel.ro	0000000000000010              _ZTIN4Json12StreamWriterE
000000000004d6e0 g     F .text	00000000000001ff              _ZN4Json9OurReader9readArrayERNS0_5TokenE
000000000004b350 g     F .text	0000000000000044              _ZN4Json17CharReaderBuilderC1Ev
000000000003a3c0 g     F .text	0000000000000005              _ZN4Json13ValueIteratorC2Ev
0000000000024930  w    F .text	0000000000000249              _ZNSt6vectorI13SpaKnocksInfoSaIS0_EE19_M_emplace_back_auxIJRKS0_EEEvDpOT_
000000000003a400 g     F .text	0000000000000020              _ZN4Json13ValueIteratorC1ERKS0_
000000000004ecc0  w    F .text	0000000000000105              _ZNSt8_Rb_treeINSt7__cxx1112basic_stringIcSt11char_traitsIcESaIcEEES5_St9_IdentityIS5_ESt4lessIS5_ESaIS5_EE4findERKS5_
0000000000042680 g     F .text	0000000000000025              _ZN4Json19StreamWriterBuilderD2Ev
0000000000260940  w    O .data.rel.ro	0000000000000010              _ZTIN4Json12StreamWriter7FactoryE
0000000000040ea0 g     F .text	000000000000033d              _ZNK4Json5Value8asStringB5cxx11Ev
0000000000000000       F *UND*	0000000000000000              _ZN10NetMonitor17register_callbackEPFvPviES0_9EAuthTypeNSt7__cxx1112basic_stringIcSt11char_traitsIcESaIcEEES9_
0000000000000000       F *UND*	0000000000000000              _ZNSt9exceptionD2Ev@@GLIBCXX_3.4
00000000000565e0  w    O .rodata	0000000000000021              _ZTSN4Json23BuiltStyledStreamWriterE
0000000000000000       F *UND*	0000000000000000              _ZSt7getlineIcSt11char_traitsIcESaIcEERSt13basic_istreamIT_T0_ES7_RNSt7__cxx1112basic_stringIS4_S5_T1_EES4_@@GLIBCXX_3.4.21
0000000000000000       F *UND*	0000000000000000              toupper@@GLIBC_2.2.5
0000000000049330 g     F .text	0000000000000220              _ZN4Json6Reader12decodeNumberERNS0_5TokenERNS_5ValueE
0000000000000000       F *UND*	0000000000000000              _ZNSt12__basic_fileIcED1Ev@@GLIBCXX_3.4
000000000004ad00 g     F .text	0000000000000223              _ZN4Json5Value16resolveReferenceEPKcS2_
000000000003a430 g     F .text	0000000000000050              _ZN4Json9ExceptionC1ERKNSt7__cxx1112basic_stringIcSt11char_traitsIcESaIcEEE
0000000000024440  w    F .text	00000000000001ca              _ZN10ConfigFileD2Ev
0000000000000000       F *UND*	0000000000000000              _ZN11CCfgFileMgr12loadFromFileEPKcc
0000000000260b50  w    O .data.rel.ro	0000000000000028              _ZTVN4Json12StreamWriterE
00000000000198f0 g     F .text	0000000000000163              _Z21AssembleSecondAuthReqP17SpaRegisterParamsRNSt7__cxx1112basic_stringIcSt11char_traitsIcESaIcEEE
000000000004c080 g     F .text	00000000000000b1              _ZN4Json6Reader5parseERSiRNS_5ValueEb
000000000004e9f0  w    F .text	000000000000027e              _ZNSt8_Rb_treeINSt7__cxx1112basic_stringIcSt11char_traitsIcESaIcEEES5_St9_IdentityIS5_ESt4lessIS5_ESaIS5_EE16_M_insert_uniqueIS5_EESt4pairISt17_Rb_tree_iteratorIS5_EbEOT_
0000000000000000       F *UND*	0000000000000000              _ZN10CSslVpnMgr13getConnStatusEv
0000000000040470 g     F .text	0000000000000398              _ZNK4Json5Value7asFloatEv
00000000000349d0  w    F .text	000000000000000a              _ZN26ACE_Thread_Descriptor_BaseD0Ev
0000000000000000       O *UND*	0000000000000000              _ZTISt9exception@@GLIBCXX_3.4
0000000000020c00 g     F .text	00000000000000fb              _Z16GetSpaAidBySdpIPNSt7__cxx1112basic_stringIcSt11char_traitsIcESaIcEEE
0000000000050500  w    F .text	00000000000001a2              _ZNSt5dequeIN4Json9OurReader9ErrorInfoESaIS2_EE17_M_reallocate_mapEmb
0000000000000000  w      *UND*	0000000000000000              __gmon_start__
0000000000000000       F *UND*	0000000000000000              getifaddrs@@GLIBC_2.3
0000000000056450  w    O .rodata	0000000000000012              _ZTSN4Json9ExceptionE
00000000000426d0 g     F .text	00000000000000f3              _ZN4Json5Value5clearEv
00000000000398f0 g     F .text	0000000000000043              _ZN4Json8Features10strictModeEv
000000000003cc70 g     F .text	00000000000001ab              _ZN4Json13valueToStringB5cxx11Ex
000000000004b610 g     F .text	0000000000000012              _ZN4Json5ValueixERKNSt7__cxx1112basic_stringIcSt11char_traitsIcESaIcEEE
0000000000050e50  w    F .text	0000000000000084              _ZN4Json13OurCharReader5parseEPKcS2_PNS_5ValueEPNSt7__cxx1112basic_stringIcSt11char_traitsIcESaIcEEE
0000000000047200 g     F .text	00000000000000db              _ZN4Json6Reader12decodeStringERNS0_5TokenE
000000000004d5c0 g     F .text	000000000000011d              _ZN4JsonrsERSiRNS_5ValueE
0000000000000000       F *UND*	0000000000000000              __cxa_pure_virtual@@CXXABI_1.3
0000000000016720 g     F .text	0000000000000027              _ZNK9CConveyor9GetServerERNSt7__cxx1112basic_stringIcSt11char_traitsIcESaIcEEERm
000000000003b4b0 g     F .text	0000000000000021              _ZN4Json5ValueC1Eb
0000000000000000  w      *UND*	0000000000000000              _ITM_registerTMCloneTable
0000000000039e00 g     F .text	000000000000005c              _ZN4Json9OurReader5matchEPKci
0000000000018920  w    F .text	0000000000000147              _ZNSt8_Rb_treeINSt7__cxx1112basic_stringIcSt11char_traitsIcESaIcEEESt4pairIKS5_S5_ESt10_Select1stIS8_ESt4lessIS5_ESaIS8_EE24_M_get_insert_unique_posERS7_
0000000000054520  w    O .rodata	000000000000000a              _ZTS8CSpaTask
0000000000000000       F *UND*	0000000000000000              _ZNSt7__cxx1112basic_stringIcSt11char_traitsIcESaIcEE6assignEPKc@@GLIBCXX_3.4.21
0000000000039d50 g     F .text	000000000000001c              _ZN4Json11OurFeaturesC1Ev
000000000003b3c0 g     F .text	0000000000000023              _ZN4Json5ValueC2Ej
000000000004b130 g     F .text	000000000000021e              _ZN4Json17CharReaderBuilder11setDefaultsEPNS_5ValueE
000000000003b370 g     F .text	000000000000001c              _ZN4Json5Value9initBasicENS_9ValueTypeEb
00000000000164a0 g     F .text	000000000000002a              _ZN9CConveyorD1Ev
000000000001db80 g     F .text	0000000000000720              _Z20ParseDevRegisterRespP17SpaRegisterParamsRKNSt7__cxx1112basic_stringIcSt11char_traitsIcESaIcEEE
000000000003c0e0 g     F .text	0000000000000133              _ZN4Json6Reader11readCommentEv
000000000001da30 g     F .text	000000000000014d              _Z19SaveSpaKeyWithSdpIPNSt7__cxx1112basic_stringIcSt11char_traitsIcESaIcEEES4_
0000000000043590 g     F .text	0000000000000014              _ZNK4Json5Value8isMemberEPKcS2_
000000000003b740 g     F .text	000000000000000f              _ZNK4Json5Value12isValidIndexEj
0000000000000000       F *UND*	0000000000000000              _ZdaPvm@@CXXABI_1.3.9
000000000003c4e0 g     F .text	0000000000000133              _ZN4Json9OurReader11readCommentEv
00000000000466a0 g     F .text	000000000000013a              _ZN4Json6Reader8addErrorERKNSt7__cxx1112basic_stringIcSt11char_traitsIcESaIcEEERNS0_5TokenEPKc
0000000000000000       F *UND*	0000000000000000              close@@GLIBC_2.2.5
000000000004a880 g     F .text	000000000000002c              _ZN4Json5Value6appendERKS0_
0000000000036850 g     F .text	00000000000009c7              _Z11getCardsMacRNSt7__cxx1112basic_stringIcSt11char_traitsIcESaIcEEE
000000000003a3a0 g     F .text	0000000000000005              _ZN4Json18ValueConstIteratorC1ERKSt17_Rb_tree_iteratorISt4pairIKNS_5Value8CZStringES3_EE
00000000000563f0 g     O .rodata	0000000000000008              _ZN4Json5Value13maxLargestIntE
00000000000563f8 g     O .rodata	0000000000000008              _ZN4Json5Value13minLargestIntE
00000000000565c0  w    O .rodata	0000000000000017              _ZTSN4Json13OurCharReaderE
000000000004ee30  w    F .text	000000000000007e              _ZNSt8_Rb_treeIN4Json5Value8CZStringESt4pairIKS2_S1_ESt10_Select1stIS5_ESt4lessIS2_ESaIS5_EE4findERS4_
0000000000000000       O *UND*	0000000000000000              _ZTVNSt7__cxx1115basic_stringbufIcSt11char_traitsIcESaIcEEE@@GLIBCXX_3.4.21
000000000004f8d0  w    F .text	00000000000000c8              _ZNSt5dequeIN4Json6Reader9ErrorInfoESaIS2_EED1Ev
00000000000349c0  w    F .text	0000000000000002              _ZN26ACE_Thread_Descriptor_BaseD2Ev
00000000000242e0  w    F .text	0000000000000049              _ZNSt7__cxx1115basic_stringbufIcSt11char_traitsIcESaIcEED0Ev
0000000000024610  w    F .text	0000000000000315              _ZNSt6vectorI17RemoteGatewayInfoSaIS0_EE19_M_emplace_back_auxIIRKS0_EEEvDpOT_
00000000000251d0 g     F .text	0000000000000017              _ZN8CSpaTaskD0Ev
0000000000049c50 g     F .text	00000000000001b4              _ZN4Json9OurReader12decodeNumberERNS0_5TokenERNS_5ValueE
0000000000000000       F *UND*	0000000000000000              _ZNSt6localeC1Ev@@GLIBCXX_3.4
0000000000000000       F *UND*	0000000000000000              _ZNSt8ios_base4InitD1Ev@@GLIBCXX_3.4
00000000000165c0 g     F .text	00000000000000ab              _Z22ResponseHeaderCallbackPcmmPv


